
np25.elf:     file format elf32-msp430


Disassembly of section .text:

0000c000 <__watchdog_support>:
    c000:	55 42 20 01 	mov.b	&0x0120,r5	
    c004:	35 d0 08 5a 	bis	#23048,	r5	;#0x5a08
    c008:	82 45 70 03 	mov	r5,	&0x0370	

0000c00c <__init_stack>:
    c00c:	31 40 00 04 	mov	#1024,	r1	;#0x0400

0000c010 <__do_copy_data>:
    c010:	3f 40 0e 00 	mov	#14,	r15	;#0x000e
    c014:	0f 93       	tst	r15		
    c016:	08 24       	jz	$+18     	;abs 0xc028
    c018:	92 42 70 03 	mov	&0x0370,&0x0120	
    c01c:	20 01 
    c01e:	2f 83       	decd	r15		
    c020:	9f 4f a2 ff 	mov	-94(r15),512(r15);0xffa2(r15), 0x0200(r15)
    c024:	00 02 
    c026:	f8 23       	jnz	$-14     	;abs 0xc018

0000c028 <__do_clear_bss>:
    c028:	3f 40 62 01 	mov	#354,	r15	;#0x0162
    c02c:	0f 93       	tst	r15		
    c02e:	07 24       	jz	$+16     	;abs 0xc03e
    c030:	92 42 70 03 	mov	&0x0370,&0x0120	
    c034:	20 01 
    c036:	1f 83       	dec	r15		
    c038:	cf 43 0e 02 	mov.b	#0,	526(r15);r3 As==00, 0x020e(r15)
    c03c:	f9 23       	jnz	$-12     	;abs 0xc030

0000c03e <main>:
    c03e:	31 50 f6 ff 	add	#-10,	r1	;#0xfff6
    c042:	b2 40 80 5a 	mov	#23168,	&0x0120	;#0x5a80
    c046:	20 01 
    c048:	d2 42 fb 10 	mov.b	&0x10fb,&0x0057	
    c04c:	57 00 
    c04e:	d2 42 fa 10 	mov.b	&0x10fa,&0x0056	
    c052:	56 00 
    c054:	b2 40 44 a5 	mov	#-23228,&0x012a	;#0xa544
    c058:	2a 01 
    c05a:	b2 40 e0 2e 	mov	#12000,	&0x0172	;#0x2ee0
    c05e:	72 01 
    c060:	b2 40 10 00 	mov	#16,	&0x0162	;#0x0010
    c064:	62 01 
    c066:	b2 40 20 02 	mov	#544,	&0x0160	;#0x0220
    c06a:	60 01 
    c06c:	c2 43 2e 00 	mov.b	#0,	&0x002e	;r3 As==00
    c070:	c2 43 26 00 	mov.b	#0,	&0x0026	;r3 As==00
    c074:	f2 43 21 00 	mov.b	#-1,	&0x0021	;r3 As==11
    c078:	f2 40 c3 ff 	mov.b	#-61,	&0x0029	;#0xffc3
    c07c:	29 00 
    c07e:	f2 43 2a 00 	mov.b	#-1,	&0x002a	;r3 As==11
    c082:	f2 43 22 00 	mov.b	#-1,	&0x0022	;r3 As==11
    c086:	f2 d0 38 00 	bis.b	#56,	&0x0029	;#0x0038
    c08a:	29 00 
    c08c:	f2 d0 38 00 	bis.b	#56,	&0x002f	;#0x0038
    c090:	2f 00 
    c092:	f2 f0 c7 ff 	and.b	#-57,	&0x002a	;#0xffc7
    c096:	2a 00 
    c098:	32 d2       	eint			
    c09a:	b0 12 7c d2 	call	#0xd27c	
    c09e:	7f 40 3e 00 	mov.b	#62,	r15	;#0x003e
    c0a2:	7f 53       	add.b	#-1,	r15	;r3 As==11
    c0a4:	4e 4f       	mov.b	r15,	r14	
    c0a6:	de 4e 40 10 	mov.b	4160(r14),703(r14);0x1040(r14), 0x02bf(r14)
    c0aa:	bf 02 
    c0ac:	fa 23       	jnz	$-10     	;abs 0xc0a2
    c0ae:	5f 42 f0 02 	mov.b	&0x02f0,r15	
    c0b2:	7f f0 0b 00 	and.b	#11,	r15	;#0x000b
    c0b6:	c2 4f 12 02 	mov.b	r15,	&0x0212	
    c0ba:	0f 43       	clr	r15		
    c0bc:	df 4f f1 02 	mov.b	753(r15),864(r15);0x02f1(r15), 0x0360(r15)
    c0c0:	60 03 
    c0c2:	1f 53       	inc	r15		
    c0c4:	3f 90 0c 00 	cmp	#12,	r15	;#0x000c
    c0c8:	f9 23       	jnz	$-12     	;abs 0xc0bc
    c0ca:	b2 40 60 03 	mov	#864,	&0x027a	;#0x0360
    c0ce:	7a 02 
    c0d0:	32 d0 10 00 	bis	#16,	r2	;#0x0010
    c0d4:	02 3c       	jmp	$+6      	;abs 0xc0da
    c0d6:	e2 d2 12 02 	bis.b	#4,	&0x0212	;r2 As==10
    c0da:	5f 42 11 02 	mov.b	&0x0211,r15	
    c0de:	7f 90 23 00 	cmp.b	#35,	r15	;#0x0023
    c0e2:	f9 27       	jz	$-12     	;abs 0xc0d6
    c0e4:	f2 40 63 00 	mov.b	#99,	&0x0278	;#0x0063
    c0e8:	78 02 
    c0ea:	59 42 12 02 	mov.b	&0x0212,r9	
    c0ee:	5f 42 11 02 	mov.b	&0x0211,r15	
    c0f2:	7f 90 22 00 	cmp.b	#34,	r15	;#0x0022
    c0f6:	9e 24       	jz	$+318    	;abs 0xc234
    c0f8:	7f 90 23 00 	cmp.b	#35,	r15	;#0x0023
    c0fc:	07 2c       	jc	$+16     	;abs 0xc10c
    c0fe:	7f 90 11 00 	cmp.b	#17,	r15	;#0x0011
    c102:	0f 24       	jz	$+32     	;abs 0xc122
    c104:	7f 90 21 00 	cmp.b	#33,	r15	;#0x0021
    c108:	b7 20       	jnz	$+368    	;abs 0xc278
    c10a:	8d 3c       	jmp	$+284    	;abs 0xc226
    c10c:	7f 90 2a 00 	cmp.b	#42,	r15	;#0x002a
    c110:	9a 24       	jz	$+310    	;abs 0xc246
    c112:	7f 90 2b 00 	cmp.b	#43,	r15	;#0x002b
    c116:	aa 24       	jz	$+342    	;abs 0xc26c
    c118:	7f 90 29 00 	cmp.b	#41,	r15	;#0x0029
    c11c:	ad 20       	jnz	$+348    	;abs 0xc278
    c11e:	9c 3c       	jmp	$+314    	;abs 0xc258
    c120:	03 43       	nop			
    c122:	5f 42 12 02 	mov.b	&0x0212,r15	
    c126:	3f f0 20 00 	and	#32,	r15	;#0x0020
    c12a:	fa 27       	jz	$-10     	;abs 0xc120
    c12c:	f2 f0 df ff 	and.b	#-33,	&0x0212	;#0xffdf
    c130:	12 02 
    c132:	1b 42 7a 02 	mov	&0x027a,r11	
    c136:	c2 43 78 02 	mov.b	#0,	&0x0278	;r3 As==00
    c13a:	c2 43 63 02 	mov.b	#0,	&0x0263	;r3 As==00
    c13e:	f2 40 0c 00 	mov.b	#12,	&0x0264	;#0x000c
    c142:	64 02 
    c144:	f2 40 63 00 	mov.b	#99,	&0x0265	;#0x0063
    c148:	65 02 
    c14a:	f2 d0 10 00 	bis.b	#16,	&0x0212	;#0x0010
    c14e:	12 02 
    c150:	08 41       	mov	r1,	r8	
    c152:	28 83       	decd	r8		
    c154:	32 d0 10 00 	bis	#16,	r2	;#0x0010
    c158:	5f 42 11 02 	mov.b	&0x0211,r15	
    c15c:	7f 90 29 00 	cmp.b	#41,	r15	;#0x0029
    c160:	5e 24       	jz	$+190    	;abs 0xc21e
    c162:	7f 90 26 00 	cmp.b	#38,	r15	;#0x0026
    c166:	15 20       	jnz	$+44     	;abs 0xc192
    c168:	5e 42 78 02 	mov.b	&0x0278,r14	
    c16c:	5e 53       	inc.b	r14		
    c16e:	c2 4e 78 02 	mov.b	r14,	&0x0278	
    c172:	f2 40 63 00 	mov.b	#99,	&0x0265	;#0x0063
    c176:	65 02 
    c178:	7e 90 0c 00 	cmp.b	#12,	r14	;#0x000c
    c17c:	02 2c       	jc	$+6      	;abs 0xc182
    c17e:	1b 53       	inc	r11		
    c180:	08 3c       	jmp	$+18     	;abs 0xc192
    c182:	7d 40 31 00 	mov.b	#49,	r13	;#0x0031
    c186:	3e 40 bf 02 	mov	#703,	r14	;#0x02bf
    c18a:	4f 43       	clr.b	r15		
    c18c:	b0 12 a0 d4 	call	#0xd4a0	
    c190:	46 3c       	jmp	$+142    	;abs 0xc21e
    c192:	7f 50 f7 ff 	add.b	#-9,	r15	;#0xfff7
    c196:	7f 90 27 00 	cmp.b	#39,	r15	;#0x0027
    c19a:	04 2c       	jc	$+10     	;abs 0xc1a4
    c19c:	4f 4f       	mov.b	r15,	r15	
    c19e:	5a 4f fb da 	mov.b	-9477(r15),r10	;0xdafb(r15)
    c1a2:	02 3c       	jmp	$+6      	;abs 0xc1a8
    c1a4:	7a 40 0a 00 	mov.b	#10,	r10	;#0x000a
    c1a8:	3d 40 09 00 	mov	#9,	r13	;#0x0009
    c1ac:	3e 40 00 02 	mov	#512,	r14	;#0x0200
    c1b0:	0f 41       	mov	r1,	r15	
    c1b2:	b0 12 40 d9 	call	#0xd940	
    c1b6:	7a 90 0a 00 	cmp.b	#10,	r10	;#0x000a
    c1ba:	cc 2f       	jc	$-102    	;abs 0xc154
    c1bc:	5a 92 65 02 	cmp.b	&0x0265,r10	
    c1c0:	26 20       	jnz	$+78     	;abs 0xc20e
    c1c2:	6a 93       	cmp.b	#2,	r10	;r3 As==10
    c1c4:	16 28       	jnc	$+46     	;abs 0xc1f2
    c1c6:	6e 4b       	mov.b	@r11,	r14	
    c1c8:	4f 4a       	mov.b	r10,	r15	
    c1ca:	7e 90 3a 00 	cmp.b	#58,	r14	;#0x003a
    c1ce:	04 2c       	jc	$+10     	;abs 0xc1d8
    c1d0:	0f 58       	add	r8,	r15	
    c1d2:	eb 4f 00 00 	mov.b	@r15,	0(r11)	;0x0000(r11)
    c1d6:	be 3f       	jmp	$-130    	;abs 0xc154
    c1d8:	5e 53       	inc.b	r14		
    c1da:	cb 4e 00 00 	mov.b	r14,	0(r11)	;0x0000(r11)
    c1de:	3d 43       	mov	#-1,	r13	;r3 As==11
    c1e0:	0d 51       	add	r1,	r13	
    c1e2:	0f 5d       	add	r13,	r15	
    c1e4:	6e 9f       	cmp.b	@r15,	r14	
    c1e6:	b6 23       	jnz	$-146    	;abs 0xc154
    c1e8:	7a 50 30 00 	add.b	#48,	r10	;#0x0030
    c1ec:	cb 4a 00 00 	mov.b	r10,	0(r11)	;0x0000(r11)
    c1f0:	b1 3f       	jmp	$-156    	;abs 0xc154
    c1f2:	4a 93       	tst.b	r10		
    c1f4:	af 23       	jnz	$-160    	;abs 0xc154
    c1f6:	fb 90 30 00 	cmp.b	#48,	0(r11)	;#0x0030, 0x0000(r11)
    c1fa:	00 00 
    c1fc:	03 20       	jnz	$+8      	;abs 0xc204
    c1fe:	7f 40 3f 00 	mov.b	#63,	r15	;#0x003f
    c202:	02 3c       	jmp	$+6      	;abs 0xc208
    c204:	7f 40 30 00 	mov.b	#48,	r15	;#0x0030
    c208:	cb 4f 00 00 	mov.b	r15,	0(r11)	;0x0000(r11)
    c20c:	a3 3f       	jmp	$-184    	;abs 0xc154
    c20e:	4f 4a       	mov.b	r10,	r15	
    c210:	7f 50 30 00 	add.b	#48,	r15	;#0x0030
    c214:	cb 4f 00 00 	mov.b	r15,	0(r11)	;0x0000(r11)
    c218:	c2 4a 65 02 	mov.b	r10,	&0x0265	
    c21c:	9b 3f       	jmp	$-200    	;abs 0xc154
    c21e:	f2 f0 ef ff 	and.b	#-17,	&0x0212	;#0xffef
    c222:	12 02 
    c224:	29 3c       	jmp	$+84     	;abs 0xc278
    c226:	7e 40 64 00 	mov.b	#100,	r14	;#0x0064
    c22a:	1f 42 7a 02 	mov	&0x027a,r15	
    c22e:	b0 12 68 d5 	call	#0xd568	
    c232:	22 3c       	jmp	$+70     	;abs 0xc278
    c234:	d2 43 12 02 	mov.b	#1,	&0x0212	;r3 As==01
    c238:	7e 40 64 00 	mov.b	#100,	r14	;#0x0064
    c23c:	3f 40 3c da 	mov	#-9668,	r15	;#0xda3c
    c240:	b0 12 68 d5 	call	#0xd568	
    c244:	19 3c       	jmp	$+52     	;abs 0xc278
    c246:	e2 43 12 02 	mov.b	#2,	&0x0212	;r3 As==10
    c24a:	7e 40 64 00 	mov.b	#100,	r14	;#0x0064
    c24e:	3f 40 46 da 	mov	#-9658,	r15	;#0xda46
    c252:	b0 12 68 d5 	call	#0xd568	
    c256:	10 3c       	jmp	$+34     	;abs 0xc278
    c258:	f2 40 03 00 	mov.b	#3,	&0x0212	;#0x0003
    c25c:	12 02 
    c25e:	7e 40 64 00 	mov.b	#100,	r14	;#0x0064
    c262:	3f 40 50 da 	mov	#-9648,	r15	;#0xda50
    c266:	b0 12 68 d5 	call	#0xd568	
    c26a:	06 3c       	jmp	$+14     	;abs 0xc278
    c26c:	7e 40 64 00 	mov.b	#100,	r14	;#0x0064
    c270:	3f 40 59 da 	mov	#-9639,	r15	;#0xda59
    c274:	b0 12 68 d5 	call	#0xd568	
    c278:	39 b2       	bit	#8,	r9	;r2 As==11
    c27a:	2b 24       	jz	$+88     	;abs 0xc2d2
    c27c:	f2 d2 12 02 	bis.b	#8,	&0x0212	;r2 As==11
    c280:	28 3c       	jmp	$+82     	;abs 0xc2d2
    c282:	32 d0 10 00 	bis	#16,	r2	;#0x0010
    c286:	5f 42 11 02 	mov.b	&0x0211,r15	
    c28a:	7f 90 22 00 	cmp.b	#34,	r15	;#0x0022
    c28e:	1f 24       	jz	$+64     	;abs 0xc2ce
    c290:	7f 90 23 00 	cmp.b	#35,	r15	;#0x0023
    c294:	04 24       	jz	$+10     	;abs 0xc29e
    c296:	7f 90 21 00 	cmp.b	#33,	r15	;#0x0021
    c29a:	1b 20       	jnz	$+56     	;abs 0xc2d2
    c29c:	0b 3c       	jmp	$+24     	;abs 0xc2b4
    c29e:	f2 f0 fb ff 	and.b	#-5,	&0x0212	;#0xfffb
    c2a2:	12 02 
    c2a4:	7d 40 31 00 	mov.b	#49,	r13	;#0x0031
    c2a8:	3e 40 bf 02 	mov	#703,	r14	;#0x02bf
    c2ac:	4f 43       	clr.b	r15		
    c2ae:	b0 12 a0 d4 	call	#0xd4a0	
    c2b2:	0f 3c       	jmp	$+32     	;abs 0xc2d2
    c2b4:	5f 42 12 02 	mov.b	&0x0212,r15	
    c2b8:	3f f0 03 00 	and	#3,	r15	;#0x0003
    c2bc:	3f 90 03 00 	cmp	#3,	r15	;#0x0003
    c2c0:	03 20       	jnz	$+8      	;abs 0xc2c8
    c2c2:	f2 f0 fc ff 	and.b	#-4,	&0x0212	;#0xfffc
    c2c6:	12 02 
    c2c8:	d2 53 12 02 	inc.b	&0x0212	
    c2cc:	02 3c       	jmp	$+6      	;abs 0xc2d2
    c2ce:	f2 e2 12 02 	xor.b	#8,	&0x0212	;r2 As==11
    c2d2:	5f 42 12 02 	mov.b	&0x0212,r15	
    c2d6:	2f f2       	and	#4,	r15	;r2 As==10
    c2d8:	d4 23       	jnz	$-86     	;abs 0xc282
    c2da:	5f 42 12 02 	mov.b	&0x0212,r15	
    c2de:	7f f0 03 00 	and.b	#3,	r15	;#0x0003
    c2e2:	6f 93       	cmp.b	#2,	r15	;r3 As==10
    c2e4:	0f 24       	jz	$+32     	;abs 0xc304
    c2e6:	7f 90 03 00 	cmp.b	#3,	r15	;#0x0003
    c2ea:	18 20       	jnz	$+50     	;abs 0xc31c
    c2ec:	c2 43 6c 03 	mov.b	#0,	&0x036c	;r3 As==00
    c2f0:	b2 40 22 db 	mov	#-9438,	&0x036e	;#0xdb22
    c2f4:	6e 03 
    c2f6:	b2 40 52 db 	mov	#-9390,	&0x027a	;#0xdb52
    c2fa:	7a 02 
    c2fc:	b2 40 52 df 	mov	#-8366,	&0x027c	;#0xdf52
    c300:	7c 02 
    c302:	17 3c       	jmp	$+48     	;abs 0xc332
    c304:	c2 43 6c 03 	mov.b	#0,	&0x036c	;r3 As==00
    c308:	b2 40 52 e0 	mov	#-8110,	&0x036e	;#0xe052
    c30c:	6e 03 
    c30e:	b2 40 82 e0 	mov	#-8062,	&0x027a	;#0xe082
    c312:	7a 02 
    c314:	b2 40 82 e8 	mov	#-6014,	&0x027c	;#0xe882
    c318:	7c 02 
    c31a:	0b 3c       	jmp	$+24     	;abs 0xc332
    c31c:	d2 43 6c 03 	mov.b	#1,	&0x036c	;r3 As==01
    c320:	b2 40 82 ea 	mov	#-5502,	&0x036e	;#0xea82
    c324:	6e 03 
    c326:	b2 40 b2 ea 	mov	#-5454,	&0x027a	;#0xeab2
    c32a:	7a 02 
    c32c:	b2 40 b2 fa 	mov	#-1358,	&0x027c	;#0xfab2
    c330:	7c 02 
    c332:	c2 93 6c 03 	tst.b	&0x036c	
    c336:	03 24       	jz	$+8      	;abs 0xc33e
    c338:	3f 40 f0 d1 	mov	#-11792,r15	;#0xd1f0
    c33c:	02 3c       	jmp	$+6      	;abs 0xc342
    c33e:	3f 40 b0 d1 	mov	#-11856,r15	;#0xd1b0
    c342:	82 4f 0c 02 	mov	r15,	&0x020c	
    c346:	82 43 6a 02 	mov	#0,	&0x026a	;r3 As==00
    c34a:	f2 40 09 00 	mov.b	#9,	&0x0265	;#0x0009
    c34e:	65 02 
    c350:	82 43 6e 02 	mov	#0,	&0x026e	;r3 As==00
    c354:	82 43 70 02 	mov	#0,	&0x0270	;r3 As==00
    c358:	0f 43       	clr	r15		
    c35a:	b0 12 74 cf 	call	#0xcf74	
    c35e:	0f 43       	clr	r15		
    c360:	b0 12 8c cb 	call	#0xcb8c	
    c364:	c2 43 64 02 	mov.b	#0,	&0x0264	;r3 As==00
    c368:	c2 43 78 02 	mov.b	#0,	&0x0278	;r3 As==00
    c36c:	f2 f0 cf ff 	and.b	#-49,	&0x0265	;#0xffcf
    c370:	65 02 
    c372:	b2 d0 20 00 	bis	#32,	&0x0266	;#0x0020
    c376:	66 02 
    c378:	b0 12 7c d2 	call	#0xd27c	
    c37c:	f2 f0 1f 00 	and.b	#31,	&0x0212	;#0x001f
    c380:	12 02 
    c382:	5e 42 09 02 	mov.b	&0x0209,r14	
    c386:	5f 43       	mov.b	#1,	r15	;r3 As==01
    c388:	4e 93       	tst.b	r14		
    c38a:	01 20       	jnz	$+4      	;abs 0xc38e
    c38c:	4f 43       	clr.b	r15		
    c38e:	b0 12 58 d2 	call	#0xd258	
    c392:	30 40 e8 ca 	br	#0xcae8	
    c396:	5f 42 12 02 	mov.b	&0x0212,r15	
    c39a:	3f f0 40 00 	and	#64,	r15	;#0x0040
    c39e:	5f 24       	jz	$+192    	;abs 0xc45e
    c3a0:	5f 42 12 02 	mov.b	&0x0212,r15	
    c3a4:	4f 93       	tst.b	r15		
    c3a6:	21 38       	jl	$+68     	;abs 0xc3ea
    c3a8:	5f 42 09 02 	mov.b	&0x0209,r15	
    c3ac:	4f 93       	tst.b	r15		
    c3ae:	1d 24       	jz	$+60     	;abs 0xc3ea
    c3b0:	5f 42 12 02 	mov.b	&0x0212,r15	
    c3b4:	3f f0 03 00 	and	#3,	r15	;#0x0003
    c3b8:	3f 90 03 00 	cmp	#3,	r15	;#0x0003
    c3bc:	16 24       	jz	$+46     	;abs 0xc3ea
    c3be:	f2 d0 80 ff 	bis.b	#-128,	&0x0212	;#0xff80
    c3c2:	12 02 
    c3c4:	5f 42 12 02 	mov.b	&0x0212,r15	
    c3c8:	1f f3       	and	#1,	r15	;r3 As==01
    c3ca:	03 24       	jz	$+8      	;abs 0xc3d2
    c3cc:	3d 40 40 10 	mov	#4160,	r13	;#0x1040
    c3d0:	02 3c       	jmp	$+6      	;abs 0xc3d6
    c3d2:	3d 40 80 10 	mov	#4224,	r13	;#0x1080
    c3d6:	7f 40 31 00 	mov.b	#49,	r15	;#0x0031
    c3da:	7f 53       	add.b	#-1,	r15	;r3 As==11
    c3dc:	4e 4f       	mov.b	r15,	r14	
    c3de:	0c 4d       	mov	r13,	r12	
    c3e0:	0c 5e       	add	r14,	r12	
    c3e2:	ee 4c bf 02 	mov.b	@r12,	703(r14);0x02bf(r14)
    c3e6:	4f 93       	tst.b	r15		
    c3e8:	f8 23       	jnz	$-14     	;abs 0xc3da
    c3ea:	5f 42 11 02 	mov.b	&0x0211,r15	
    c3ee:	7f 90 23 00 	cmp.b	#35,	r15	;#0x0023
    c3f2:	24 20       	jnz	$+74     	;abs 0xc43c
    c3f4:	5e 42 09 02 	mov.b	&0x0209,r14	
    c3f8:	5e e3       	xor.b	#1,	r14	;r3 As==01
    c3fa:	c2 4e 09 02 	mov.b	r14,	&0x0209	
    c3fe:	5f 43       	mov.b	#1,	r15	;r3 As==01
    c400:	01 20       	jnz	$+4      	;abs 0xc404
    c402:	4f 43       	clr.b	r15		
    c404:	b0 12 58 d2 	call	#0xd258	
    c408:	5f 42 09 02 	mov.b	&0x0209,r15	
    c40c:	4f 93       	tst.b	r15		
    c40e:	23 24       	jz	$+72     	;abs 0xc456
    c410:	5f 42 12 02 	mov.b	&0x0212,r15	
    c414:	3f f0 03 00 	and	#3,	r15	;#0x0003
    c418:	3f 90 03 00 	cmp	#3,	r15	;#0x0003
    c41c:	1c 24       	jz	$+58     	;abs 0xc456
    c41e:	5f 42 12 02 	mov.b	&0x0212,r15	
    c422:	5e 42 12 02 	mov.b	&0x0212,r14	
    c426:	1e f3       	and	#1,	r14	;r3 As==01
    c428:	5f 43       	mov.b	#1,	r15	;r3 As==01
    c42a:	01 24       	jz	$+4      	;abs 0xc42e
    c42c:	4f 43       	clr.b	r15		
    c42e:	7d 40 31 00 	mov.b	#49,	r13	;#0x0031
    c432:	3e 40 bf 02 	mov	#703,	r14	;#0x02bf
    c436:	b0 12 a0 d4 	call	#0xd4a0	
    c43a:	0d 3c       	jmp	$+28     	;abs 0xc456
    c43c:	5f 42 11 02 	mov.b	&0x0211,r15	
    c440:	4f 4f       	mov.b	r15,	r15	
    c442:	1f 52 6e 03 	add	&0x036e,r15	
    c446:	6f 4f       	mov.b	@r15,	r15	
    c448:	4f 93       	tst.b	r15		
    c44a:	05 24       	jz	$+12     	;abs 0xc456
    c44c:	c2 4f 78 02 	mov.b	r15,	&0x0278	
    c450:	f2 d0 10 00 	bis.b	#16,	&0x0265	;#0x0010
    c454:	65 02 
    c456:	f2 f0 bf ff 	and.b	#-65,	&0x0212	;#0xffbf
    c45a:	12 02 
    c45c:	0b 3c       	jmp	$+24     	;abs 0xc474
    c45e:	5f 42 12 02 	mov.b	&0x0212,r15	
    c462:	3f f0 20 00 	and	#32,	r15	;#0x0020
    c466:	06 24       	jz	$+14     	;abs 0xc474
    c468:	f2 f0 ef ff 	and.b	#-17,	&0x0265	;#0xffef
    c46c:	65 02 
    c46e:	f2 f0 df ff 	and.b	#-33,	&0x0212	;#0xffdf
    c472:	12 02 
    c474:	1d 42 6a 02 	mov	&0x026a,r13	
    c478:	82 4d 76 02 	mov	r13,	&0x0276	
    c47c:	5b 42 65 02 	mov.b	&0x0265,r11	
    c480:	4b 93       	tst.b	r11		
    c482:	04 34       	jge	$+10     	;abs 0xc48c
    c484:	0c 4d       	mov	r13,	r12	
    c486:	3c 50 00 10 	add	#4096,	r12	;#0x1000
    c48a:	01 3c       	jmp	$+4      	;abs 0xc48e
    c48c:	0c 4d       	mov	r13,	r12	
    c48e:	0f 4c       	mov	r12,	r15	
    c490:	12 c3       	clrc			
    c492:	0f 10       	rrc	r15		
    c494:	12 c3       	clrc			
    c496:	0f 10       	rrc	r15		
    c498:	1f 52 7c 02 	add	&0x027c,r15	
    c49c:	0e 4c       	mov	r12,	r14	
    c49e:	3e f0 03 00 	and	#3,	r14	;#0x0003
    c4a2:	0e 5e       	rla	r14		
    c4a4:	6f 4f       	mov.b	@r15,	r15	
    c4a6:	4e 4e       	mov.b	r14,	r14	
    c4a8:	4e 93       	tst.b	r14		
    c4aa:	03 24       	jz	$+8      	;abs 0xc4b2
    c4ac:	0f 11       	rra	r15		
    c4ae:	7e 53       	add.b	#-1,	r14	;r3 As==11
    c4b0:	fd 23       	jnz	$-4      	;abs 0xc4ac
    c4b2:	3f f0 03 00 	and	#3,	r15	;#0x0003
    c4b6:	1c 52 7a 02 	add	&0x027a,r12	
    c4ba:	6e 4c       	mov.b	@r12,	r14	
    c4bc:	0e 5e       	rla	r14		
    c4be:	0e 5e       	rla	r14		
    c4c0:	0f de       	bis	r14,	r15	
    c4c2:	1c 42 6e 02 	mov	&0x026e,r12	
    c4c6:	1c 93       	cmp	#1,	r12	;r3 As==01
    c4c8:	02 20       	jnz	$+6      	;abs 0xc4ce
    c4ca:	82 43 6e 02 	mov	#0,	&0x026e	;r3 As==00
    c4ce:	2b b3       	bit	#2,	r11	;r3 As==10
    c4d0:	04 24       	jz	$+10     	;abs 0xc4da
    c4d2:	6b d2       	bis.b	#4,	r11	;r2 As==10
    c4d4:	c2 4b 65 02 	mov.b	r11,	&0x0265	
    c4d8:	04 3c       	jmp	$+10     	;abs 0xc4e2
    c4da:	7b f0 fb ff 	and.b	#-5,	r11	;#0xfffb
    c4de:	c2 4b 65 02 	mov.b	r11,	&0x0265	
    c4e2:	5b 42 65 02 	mov.b	&0x0265,r11	
    c4e6:	7b f0 fd ff 	and.b	#-3,	r11	;#0xfffd
    c4ea:	c2 4b 65 02 	mov.b	r11,	&0x0265	
    c4ee:	4e 4b       	mov.b	r11,	r14	
    c4f0:	3e b0 10 00 	bit	#16,	r14	;#0x0010
    c4f4:	03 24       	jz	$+8      	;abs 0xc4fc
    c4f6:	b2 d0 00 80 	bis	#-32768,&0x0268	;#0x8000
    c4fa:	68 02 
    c4fc:	1a 42 66 02 	mov	&0x0266,r10	
    c500:	3a b2       	bit	#8,	r10	;r2 As==11
    c502:	02 24       	jz	$+6      	;abs 0xc508
    c504:	b2 d2 68 02 	bis	#8,	&0x0268	;r2 As==11
    c508:	3a f0 20 00 	and	#32,	r10	;#0x0020
    c50c:	03 24       	jz	$+8      	;abs 0xc514
    c50e:	b2 d0 20 00 	bis	#32,	&0x0268	;#0x0020
    c512:	68 02 
    c514:	1d 53       	inc	r13		
    c516:	82 4d 6a 02 	mov	r13,	&0x026a	
    c51a:	1c 93       	cmp	#1,	r12	;r3 As==01
    c51c:	02 20       	jnz	$+6      	;abs 0xc522
    c51e:	30 40 a0 ca 	br	#0xcaa0	
    c522:	06 28       	jnc	$+14     	;abs 0xc530
    c524:	2c 93       	cmp	#2,	r12	;r3 As==10
    c526:	02 24       	jz	$+6      	;abs 0xc52c
    c528:	30 40 cc ca 	br	#0xcacc	
    c52c:	30 40 b0 ca 	br	#0xcab0	
    c530:	0c 4f       	mov	r15,	r12	
    c532:	3c f0 03 00 	and	#3,	r12	;#0x0003
    c536:	2c 93       	cmp	#2,	r12	;r3 As==10
    c538:	76 24       	jz	$+238    	;abs 0xc626
    c53a:	3c 90 03 00 	cmp	#3,	r12	;#0x0003
    c53e:	02 20       	jnz	$+6      	;abs 0xc544
    c540:	30 40 84 ca 	br	#0xca84	
    c544:	1c 93       	cmp	#1,	r12	;r3 As==01
    c546:	52 24       	jz	$+166    	;abs 0xc5ec
    c548:	0e 4f       	mov	r15,	r14	
    c54a:	12 c3       	clrc			
    c54c:	0e 10       	rrc	r14		
    c54e:	12 c3       	clrc			
    c550:	0e 10       	rrc	r14		
    c552:	3e f0 03 00 	and	#3,	r14	;#0x0003
    c556:	2e 93       	cmp	#2,	r14	;r3 As==10
    c558:	1f 24       	jz	$+64     	;abs 0xc598
    c55a:	3e 90 03 00 	cmp	#3,	r14	;#0x0003
    c55e:	39 24       	jz	$+116    	;abs 0xc5d2
    c560:	1e 93       	cmp	#1,	r14	;r3 As==01
    c562:	0d 24       	jz	$+28     	;abs 0xc57e
    c564:	0e 4f       	mov	r15,	r14	
    c566:	12 c3       	clrc			
    c568:	0e 10       	rrc	r14		
    c56a:	12 c3       	clrc			
    c56c:	0e 10       	rrc	r14		
    c56e:	12 c3       	clrc			
    c570:	0e 10       	rrc	r14		
    c572:	3e f0 fe 03 	and	#1022,	r14	;#0x03fe
    c576:	9e 12 b2 fe 	call	-334(r14)	;0xfeb2(r14)
    c57a:	30 40 cc ca 	br	#0xcacc	
    c57e:	0e 4f       	mov	r15,	r14	
    c580:	12 c3       	clrc			
    c582:	0e 10       	rrc	r14		
    c584:	12 c3       	clrc			
    c586:	0e 10       	rrc	r14		
    c588:	12 c3       	clrc			
    c58a:	0e 10       	rrc	r14		
    c58c:	3e f0 06 00 	and	#6,	r14	;#0x0006
    c590:	9e 12 32 ff 	call	-206(r14)	;0xff32(r14)
    c594:	30 40 cc ca 	br	#0xcacc	
    c598:	0e 4f       	mov	r15,	r14	
    c59a:	12 c3       	clrc			
    c59c:	0e 10       	rrc	r14		
    c59e:	12 c3       	clrc			
    c5a0:	0e 10       	rrc	r14		
    c5a2:	12 c3       	clrc			
    c5a4:	0e 10       	rrc	r14		
    c5a6:	12 c3       	clrc			
    c5a8:	0e 10       	rrc	r14		
    c5aa:	3e f0 03 00 	and	#3,	r14	;#0x0003
    c5ae:	05 24       	jz	$+12     	;abs 0xc5ba
    c5b0:	0e 5e       	rla	r14		
    c5b2:	9e 12 3a ff 	call	-198(r14)	;0xff3a(r14)
    c5b6:	30 40 cc ca 	br	#0xcacc	
    c5ba:	0e 4f       	mov	r15,	r14	
    c5bc:	7d 40 06 00 	mov.b	#6,	r13	;#0x0006
    c5c0:	12 c3       	clrc			
    c5c2:	0e 10       	rrc	r14		
    c5c4:	7d 53       	add.b	#-1,	r13	;r3 As==11
    c5c6:	fc 23       	jnz	$-6      	;abs 0xc5c0
    c5c8:	0e 5e       	rla	r14		
    c5ca:	9e 12 42 ff 	call	-190(r14)	;0xff42(r14)
    c5ce:	30 40 cc ca 	br	#0xcacc	
    c5d2:	0e 4f       	mov	r15,	r14	
    c5d4:	12 c3       	clrc			
    c5d6:	0e 10       	rrc	r14		
    c5d8:	12 c3       	clrc			
    c5da:	0e 10       	rrc	r14		
    c5dc:	12 c3       	clrc			
    c5de:	0e 10       	rrc	r14		
    c5e0:	3e f0 06 00 	and	#6,	r14	;#0x0006
    c5e4:	9e 12 62 ff 	call	-158(r14)	;0xff62(r14)
    c5e8:	30 40 cc ca 	br	#0xcacc	
    c5ec:	1c 42 70 02 	mov	&0x0270,r12	
    c5f0:	0e 4c       	mov	r12,	r14	
    c5f2:	3e 50 2e 00 	add	#46,	r14	;#0x002e
    c5f6:	0e 5e       	rla	r14		
    c5f8:	8e 4d 16 02 	mov	r13,	534(r14);0x0216(r14)
    c5fc:	0e 4c       	mov	r12,	r14	
    c5fe:	1e 53       	inc	r14		
    c600:	82 4e 70 02 	mov	r14,	&0x0270	
    c604:	2e 93       	cmp	#2,	r14	;r3 As==10
    c606:	02 38       	jl	$+6      	;abs 0xc60c
    c608:	82 43 70 02 	mov	#0,	&0x0270	;r3 As==00
    c60c:	0f 11       	rra	r15		
    c60e:	0f 11       	rra	r15		
    c610:	3d f0 00 ff 	and	#-256,	r13	;#0xff00
    c614:	0f dd       	bis	r13,	r15	
    c616:	82 4f 6a 02 	mov	r15,	&0x026a	
    c61a:	3f 40 16 02 	mov	#534,	r15	;#0x0216
    c61e:	b0 12 04 cb 	call	#0xcb04	
    c622:	30 40 cc ca 	br	#0xcacc	
    c626:	0e 4f       	mov	r15,	r14	
    c628:	0e 11       	rra	r14		
    c62a:	0e 11       	rra	r14		
    c62c:	0e 11       	rra	r14		
    c62e:	0e 11       	rra	r14		
    c630:	0e 11       	rra	r14		
    c632:	4a 4e       	mov.b	r14,	r10	
    c634:	0f 11       	rra	r15		
    c636:	0f 11       	rra	r15		
    c638:	7f f0 07 00 	and.b	#7,	r15	;#0x0007
    c63c:	7f 53       	add.b	#-1,	r15	;r3 As==11
    c63e:	7f 90 07 00 	cmp.b	#7,	r15	;#0x0007
    c642:	07 2c       	jc	$+16     	;abs 0xc652
    c644:	4d 4f       	mov.b	r15,	r13	
    c646:	0d 5d       	rla	r13		
    c648:	10 4d 64 da 	br	-9628(r13)	;0xda64(r13)
    c64c:	2c 43       	mov	#2,	r12	;r3 As==10
    c64e:	2e 43       	mov	#2,	r14	;r3 As==10
    c650:	2b 3c       	jmp	$+88     	;abs 0xc6a8
    c652:	5f 42 64 02 	mov.b	&0x0264,r15	
    c656:	4e 4f       	mov.b	r15,	r14	
    c658:	7f 90 0e 00 	cmp.b	#14,	r15	;#0x000e
    c65c:	20 2c       	jc	$+66     	;abs 0xc69e
    c65e:	0c 4e       	mov	r14,	r12	
    c660:	23 3c       	jmp	$+72     	;abs 0xc6a8
    c662:	5c 42 64 02 	mov.b	&0x0264,r12	
    c666:	7c 90 0e 00 	cmp.b	#14,	r12	;#0x000e
    c66a:	1b 2c       	jc	$+56     	;abs 0xc6a2
    c66c:	4c 4c       	mov.b	r12,	r12	
    c66e:	0e 43       	clr	r14		
    c670:	1b 3c       	jmp	$+56     	;abs 0xc6a8
    c672:	3c 40 0d 00 	mov	#13,	r12	;#0x000d
    c676:	3e 40 0d 00 	mov	#13,	r14	;#0x000d
    c67a:	16 3c       	jmp	$+46     	;abs 0xc6a8
    c67c:	3c 40 0c 00 	mov	#12,	r12	;#0x000c
    c680:	3e 40 03 00 	mov	#3,	r14	;#0x0003
    c684:	11 3c       	jmp	$+36     	;abs 0xc6a8
    c686:	3c 40 0d 00 	mov	#13,	r12	;#0x000d
    c68a:	0e 43       	clr	r14		
    c68c:	0d 3c       	jmp	$+28     	;abs 0xc6a8
    c68e:	3c 40 0d 00 	mov	#13,	r12	;#0x000d
    c692:	3e 40 03 00 	mov	#3,	r14	;#0x0003
    c696:	08 3c       	jmp	$+18     	;abs 0xc6a8
    c698:	2c 43       	mov	#2,	r12	;r3 As==10
    c69a:	0e 43       	clr	r14		
    c69c:	05 3c       	jmp	$+12     	;abs 0xc6a8
    c69e:	0c 43       	clr	r12		
    c6a0:	03 3c       	jmp	$+8      	;abs 0xc6a8
    c6a2:	3c 40 0d 00 	mov	#13,	r12	;#0x000d
    c6a6:	0e 43       	clr	r14		
    c6a8:	4f 4b       	mov.b	r11,	r15	
    c6aa:	7f f0 fd ff 	and.b	#-3,	r15	;#0xfffd
    c6ae:	c2 4f 65 02 	mov.b	r15,	&0x0265	
    c6b2:	0d 4a       	mov	r10,	r13	
    c6b4:	3d f0 1f 00 	and	#31,	r13	;#0x001f
    c6b8:	0d 5d       	rla	r13		
    c6ba:	10 4d 72 da 	br	-9614(r13)	;0xda72(r13)
    c6be:	0d 4c       	mov	r12,	r13	
    c6c0:	3f 40 16 02 	mov	#534,	r15	;#0x0216
    c6c4:	b0 12 6a d2 	call	#0xd26a	
    c6c8:	30 40 cc ca 	br	#0xcacc	
    c6cc:	0d 4c       	mov	r12,	r13	
    c6ce:	3f 40 24 02 	mov	#548,	r15	;#0x0224
    c6d2:	b0 12 6a d2 	call	#0xd26a	
    c6d6:	30 40 cc ca 	br	#0xcacc	
    c6da:	0d 4e       	mov	r14,	r13	
    c6dc:	3e 40 24 02 	mov	#548,	r14	;#0x0224
    c6e0:	3f 40 16 02 	mov	#534,	r15	;#0x0216
    c6e4:	b0 12 c6 d2 	call	#0xd2c6	
    c6e8:	30 40 cc ca 	br	#0xcacc	
    c6ec:	0d 4e       	mov	r14,	r13	
    c6ee:	3e 40 16 02 	mov	#534,	r14	;#0x0216
    c6f2:	0f 4e       	mov	r14,	r15	
    c6f4:	3f 50 0e 00 	add	#14,	r15	;#0x000e
    c6f8:	b0 12 a8 d2 	call	#0xd2a8	
    c6fc:	30 40 cc ca 	br	#0xcacc	
    c700:	0d 4e       	mov	r14,	r13	
    c702:	3e 40 32 02 	mov	#562,	r14	;#0x0232
    c706:	3f 40 16 02 	mov	#534,	r15	;#0x0216
    c70a:	b0 12 c6 d2 	call	#0xd2c6	
    c70e:	30 40 cc ca 	br	#0xcacc	
    c712:	0d 4e       	mov	r14,	r13	
    c714:	3e 40 32 02 	mov	#562,	r14	;#0x0232
    c718:	3f 40 16 02 	mov	#534,	r15	;#0x0216
    c71c:	b0 12 a8 d2 	call	#0xd2a8	
    c720:	30 40 cc ca 	br	#0xcacc	
    c724:	0d 4e       	mov	r14,	r13	
    c726:	3e 40 24 02 	mov	#548,	r14	;#0x0224
    c72a:	0f 4e       	mov	r14,	r15	
    c72c:	3f 50 0e 00 	add	#14,	r15	;#0x000e
    c730:	b0 12 a8 d2 	call	#0xd2a8	
    c734:	30 40 cc ca 	br	#0xcacc	
    c738:	0d 4e       	mov	r14,	r13	
    c73a:	3e 40 32 02 	mov	#562,	r14	;#0x0232
    c73e:	0f 4e       	mov	r14,	r15	
    c740:	3f 50 f2 ff 	add	#-14,	r15	;#0xfff2
    c744:	b0 12 c6 d2 	call	#0xd2c6	
    c748:	30 40 cc ca 	br	#0xcacc	
    c74c:	0d 4c       	mov	r12,	r13	
    c74e:	3f 40 32 02 	mov	#562,	r15	;#0x0232
    c752:	b0 12 6a d2 	call	#0xd26a	
    c756:	30 40 cc ca 	br	#0xcacc	
    c75a:	1f f3       	and	#1,	r15	;r3 As==01
    c75c:	03 24       	jz	$+8      	;abs 0xc764
    c75e:	7f 40 0a 00 	mov.b	#10,	r15	;#0x000a
    c762:	02 3c       	jmp	$+6      	;abs 0xc768
    c764:	7f 40 10 00 	mov.b	#16,	r15	;#0x0010
    c768:	4f 12       	push.b	r15		
    c76a:	63 12       	push.b	#2		;r3 As==10
    c76c:	0c 12       	push	r12		
    c76e:	0c 4e       	mov	r14,	r12	
    c770:	3d 40 24 02 	mov	#548,	r13	;#0x0224
    c774:	3e 40 16 02 	mov	#534,	r14	;#0x0216
    c778:	0f 4e       	mov	r14,	r15	
    c77a:	b0 12 ee d2 	call	#0xd2ee	
    c77e:	31 50 06 00 	add	#6,	r1	;#0x0006
    c782:	30 40 cc ca 	br	#0xcacc	
    c786:	1f f3       	and	#1,	r15	;r3 As==01
    c788:	03 24       	jz	$+8      	;abs 0xc790
    c78a:	7f 40 0a 00 	mov.b	#10,	r15	;#0x000a
    c78e:	02 3c       	jmp	$+6      	;abs 0xc794
    c790:	7f 40 10 00 	mov.b	#16,	r15	;#0x0010
    c794:	4f 12       	push.b	r15		
    c796:	63 12       	push.b	#2		;r3 As==10
    c798:	0c 12       	push	r12		
    c79a:	0c 4e       	mov	r14,	r12	
    c79c:	3d 40 32 02 	mov	#562,	r13	;#0x0232
    c7a0:	3e 40 16 02 	mov	#534,	r14	;#0x0216
    c7a4:	0f 4e       	mov	r14,	r15	
    c7a6:	b0 12 ee d2 	call	#0xd2ee	
    c7aa:	31 50 06 00 	add	#6,	r1	;#0x0006
    c7ae:	30 40 cc ca 	br	#0xcacc	
    c7b2:	1f f3       	and	#1,	r15	;r3 As==01
    c7b4:	03 24       	jz	$+8      	;abs 0xc7bc
    c7b6:	7f 40 0a 00 	mov.b	#10,	r15	;#0x000a
    c7ba:	02 3c       	jmp	$+6      	;abs 0xc7c0
    c7bc:	7f 40 10 00 	mov.b	#16,	r15	;#0x0010
    c7c0:	4f 12       	push.b	r15		
    c7c2:	63 12       	push.b	#2		;r3 As==10
    c7c4:	0c 12       	push	r12		
    c7c6:	0c 4e       	mov	r14,	r12	
    c7c8:	3d 40 32 02 	mov	#562,	r13	;#0x0232
    c7cc:	0e 4d       	mov	r13,	r14	
    c7ce:	0f 4d       	mov	r13,	r15	
    c7d0:	b0 12 ee d2 	call	#0xd2ee	
    c7d4:	31 50 06 00 	add	#6,	r1	;#0x0006
    c7d8:	30 40 cc ca 	br	#0xcacc	
    c7dc:	1f f3       	and	#1,	r15	;r3 As==01
    c7de:	03 24       	jz	$+8      	;abs 0xc7e6
    c7e0:	7f 40 0a 00 	mov.b	#10,	r15	;#0x000a
    c7e4:	02 3c       	jmp	$+6      	;abs 0xc7ea
    c7e6:	7f 40 10 00 	mov.b	#16,	r15	;#0x0010
    c7ea:	4f 12       	push.b	r15		
    c7ec:	63 12       	push.b	#2		;r3 As==10
    c7ee:	0c 12       	push	r12		
    c7f0:	0c 4e       	mov	r14,	r12	
    c7f2:	3d 40 32 02 	mov	#562,	r13	;#0x0232
    c7f6:	3e 40 16 02 	mov	#534,	r14	;#0x0216
    c7fa:	0f 4d       	mov	r13,	r15	
    c7fc:	b0 12 ee d2 	call	#0xd2ee	
    c800:	31 50 06 00 	add	#6,	r1	;#0x0006
    c804:	30 40 cc ca 	br	#0xcacc	
    c808:	6f d3       	bis.b	#2,	r15	;r3 As==10
    c80a:	c2 4f 65 02 	mov.b	r15,	&0x0265	
    c80e:	1f f3       	and	#1,	r15	;r3 As==01
    c810:	03 24       	jz	$+8      	;abs 0xc818
    c812:	7f 40 0a 00 	mov.b	#10,	r15	;#0x000a
    c816:	02 3c       	jmp	$+6      	;abs 0xc81c
    c818:	7f 40 10 00 	mov.b	#16,	r15	;#0x0010
    c81c:	4f 12       	push.b	r15		
    c81e:	63 12       	push.b	#2		;r3 As==10
    c820:	0c 12       	push	r12		
    c822:	0c 4e       	mov	r14,	r12	
    c824:	0d 43       	clr	r13		
    c826:	3e 40 16 02 	mov	#534,	r14	;#0x0216
    c82a:	0f 4e       	mov	r14,	r15	
    c82c:	b0 12 ee d2 	call	#0xd2ee	
    c830:	31 50 06 00 	add	#6,	r1	;#0x0006
    c834:	30 40 cc ca 	br	#0xcacc	
    c838:	0d 4c       	mov	r12,	r13	
    c83a:	3f 40 16 02 	mov	#534,	r15	;#0x0216
    c83e:	b0 12 7e d4 	call	#0xd47e	
    c842:	30 40 cc ca 	br	#0xcacc	
    c846:	6f d3       	bis.b	#2,	r15	;r3 As==10
    c848:	c2 4f 65 02 	mov.b	r15,	&0x0265	
    c84c:	1f f3       	and	#1,	r15	;r3 As==01
    c84e:	03 24       	jz	$+8      	;abs 0xc856
    c850:	7f 40 0a 00 	mov.b	#10,	r15	;#0x000a
    c854:	02 3c       	jmp	$+6      	;abs 0xc85a
    c856:	7f 40 10 00 	mov.b	#16,	r15	;#0x0010
    c85a:	4f 12       	push.b	r15		
    c85c:	63 12       	push.b	#2		;r3 As==10
    c85e:	0c 12       	push	r12		
    c860:	0c 4e       	mov	r14,	r12	
    c862:	0d 43       	clr	r13		
    c864:	3e 40 32 02 	mov	#562,	r14	;#0x0232
    c868:	0f 4e       	mov	r14,	r15	
    c86a:	b0 12 ee d2 	call	#0xd2ee	
    c86e:	31 50 06 00 	add	#6,	r1	;#0x0006
    c872:	30 40 cc ca 	br	#0xcacc	
    c876:	1f f3       	and	#1,	r15	;r3 As==01
    c878:	03 24       	jz	$+8      	;abs 0xc880
    c87a:	7f 40 0a 00 	mov.b	#10,	r15	;#0x000a
    c87e:	02 3c       	jmp	$+6      	;abs 0xc884
    c880:	7f 40 10 00 	mov.b	#16,	r15	;#0x0010
    c884:	4f 12       	push.b	r15		
    c886:	63 12       	push.b	#2		;r3 As==10
    c888:	0c 12       	push	r12		
    c88a:	0c 4e       	mov	r14,	r12	
    c88c:	3d 40 24 02 	mov	#548,	r13	;#0x0224
    c890:	3e 40 16 02 	mov	#534,	r14	;#0x0216
    c894:	0f 4e       	mov	r14,	r15	
    c896:	b0 12 5a d3 	call	#0xd35a	
    c89a:	31 50 06 00 	add	#6,	r1	;#0x0006
    c89e:	30 40 cc ca 	br	#0xcacc	
    c8a2:	1f f3       	and	#1,	r15	;r3 As==01
    c8a4:	03 24       	jz	$+8      	;abs 0xc8ac
    c8a6:	7f 40 0a 00 	mov.b	#10,	r15	;#0x000a
    c8aa:	02 3c       	jmp	$+6      	;abs 0xc8b0
    c8ac:	7f 40 10 00 	mov.b	#16,	r15	;#0x0010
    c8b0:	4f 12       	push.b	r15		
    c8b2:	63 12       	push.b	#2		;r3 As==10
    c8b4:	0c 12       	push	r12		
    c8b6:	0c 4e       	mov	r14,	r12	
    c8b8:	3d 40 32 02 	mov	#562,	r13	;#0x0232
    c8bc:	3e 40 16 02 	mov	#534,	r14	;#0x0216
    c8c0:	0f 4d       	mov	r13,	r15	
    c8c2:	b0 12 5a d3 	call	#0xd35a	
    c8c6:	31 50 06 00 	add	#6,	r1	;#0x0006
    c8ca:	30 40 cc ca 	br	#0xcacc	
    c8ce:	6f d3       	bis.b	#2,	r15	;r3 As==10
    c8d0:	c2 4f 65 02 	mov.b	r15,	&0x0265	
    c8d4:	1f f3       	and	#1,	r15	;r3 As==01
    c8d6:	03 24       	jz	$+8      	;abs 0xc8de
    c8d8:	7f 40 0a 00 	mov.b	#10,	r15	;#0x000a
    c8dc:	02 3c       	jmp	$+6      	;abs 0xc8e2
    c8de:	7f 40 10 00 	mov.b	#16,	r15	;#0x0010
    c8e2:	4f 12       	push.b	r15		
    c8e4:	63 12       	push.b	#2		;r3 As==10
    c8e6:	0c 12       	push	r12		
    c8e8:	0c 4e       	mov	r14,	r12	
    c8ea:	0d 43       	clr	r13		
    c8ec:	3e 40 16 02 	mov	#534,	r14	;#0x0216
    c8f0:	0f 4e       	mov	r14,	r15	
    c8f2:	b0 12 5a d3 	call	#0xd35a	
    c8f6:	31 50 06 00 	add	#6,	r1	;#0x0006
    c8fa:	30 40 cc ca 	br	#0xcacc	
    c8fe:	6f d3       	bis.b	#2,	r15	;r3 As==10
    c900:	c2 4f 65 02 	mov.b	r15,	&0x0265	
    c904:	1f f3       	and	#1,	r15	;r3 As==01
    c906:	03 24       	jz	$+8      	;abs 0xc90e
    c908:	7f 40 0a 00 	mov.b	#10,	r15	;#0x000a
    c90c:	02 3c       	jmp	$+6      	;abs 0xc912
    c90e:	7f 40 10 00 	mov.b	#16,	r15	;#0x0010
    c912:	4f 12       	push.b	r15		
    c914:	63 12       	push.b	#2		;r3 As==10
    c916:	0c 12       	push	r12		
    c918:	0c 4e       	mov	r14,	r12	
    c91a:	0d 43       	clr	r13		
    c91c:	3e 40 32 02 	mov	#562,	r14	;#0x0232
    c920:	0f 4e       	mov	r14,	r15	
    c922:	b0 12 5a d3 	call	#0xd35a	
    c926:	31 50 06 00 	add	#6,	r1	;#0x0006
    c92a:	d0 3c       	jmp	$+418    	;abs 0xcacc
    c92c:	1f f3       	and	#1,	r15	;r3 As==01
    c92e:	03 24       	jz	$+8      	;abs 0xc936
    c930:	7f 40 0a 00 	mov.b	#10,	r15	;#0x000a
    c934:	02 3c       	jmp	$+6      	;abs 0xc93a
    c936:	7f 40 10 00 	mov.b	#16,	r15	;#0x0010
    c93a:	4f 12       	push.b	r15		
    c93c:	63 12       	push.b	#2		;r3 As==10
    c93e:	0c 12       	push	r12		
    c940:	0c 4e       	mov	r14,	r12	
    c942:	3d 40 32 02 	mov	#562,	r13	;#0x0232
    c946:	0e 43       	clr	r14		
    c948:	0f 4d       	mov	r13,	r15	
    c94a:	b0 12 5a d3 	call	#0xd35a	
    c94e:	31 50 06 00 	add	#6,	r1	;#0x0006
    c952:	bc 3c       	jmp	$+378    	;abs 0xcacc
    c954:	6f d3       	bis.b	#2,	r15	;r3 As==10
    c956:	c2 4f 65 02 	mov.b	r15,	&0x0265	
    c95a:	1f f3       	and	#1,	r15	;r3 As==01
    c95c:	03 24       	jz	$+8      	;abs 0xc964
    c95e:	7f 40 0a 00 	mov.b	#10,	r15	;#0x000a
    c962:	02 3c       	jmp	$+6      	;abs 0xc968
    c964:	7f 40 10 00 	mov.b	#16,	r15	;#0x0010
    c968:	4f 12       	push.b	r15		
    c96a:	63 12       	push.b	#2		;r3 As==10
    c96c:	0c 12       	push	r12		
    c96e:	0c 4e       	mov	r14,	r12	
    c970:	3d 40 32 02 	mov	#562,	r13	;#0x0232
    c974:	0e 43       	clr	r14		
    c976:	0f 4d       	mov	r13,	r15	
    c978:	b0 12 5a d3 	call	#0xd35a	
    c97c:	31 50 06 00 	add	#6,	r1	;#0x0006
    c980:	a5 3c       	jmp	$+332    	;abs 0xcacc
    c982:	92 43 6e 02 	mov	#1,	&0x026e	;r3 As==01
    c986:	63 12       	push.b	#2		;r3 As==10
    c988:	0d 4e       	mov	r14,	r13	
    c98a:	0e 43       	clr	r14		
    c98c:	3f 40 24 02 	mov	#548,	r15	;#0x0224
    c990:	b0 12 22 d4 	call	#0xd422	
    c994:	21 53       	incd	r1		
    c996:	9a 3c       	jmp	$+310    	;abs 0xcacc
    c998:	92 43 6e 02 	mov	#1,	&0x026e	;r3 As==01
    c99c:	63 12       	push.b	#2		;r3 As==10
    c99e:	0d 4e       	mov	r14,	r13	
    c9a0:	0e 43       	clr	r14		
    c9a2:	3f 40 32 02 	mov	#562,	r15	;#0x0232
    c9a6:	b0 12 22 d4 	call	#0xd422	
    c9aa:	21 53       	incd	r1		
    c9ac:	8f 3c       	jmp	$+288    	;abs 0xcacc
    c9ae:	92 43 6e 02 	mov	#1,	&0x026e	;r3 As==01
    c9b2:	1f f3       	and	#1,	r15	;r3 As==01
    c9b4:	03 24       	jz	$+8      	;abs 0xc9bc
    c9b6:	7f 40 0a 00 	mov.b	#10,	r15	;#0x000a
    c9ba:	02 3c       	jmp	$+6      	;abs 0xc9c0
    c9bc:	7f 40 10 00 	mov.b	#16,	r15	;#0x0010
    c9c0:	4f 12       	push.b	r15		
    c9c2:	63 12       	push.b	#2		;r3 As==10
    c9c4:	0c 12       	push	r12		
    c9c6:	0c 4e       	mov	r14,	r12	
    c9c8:	3d 40 32 02 	mov	#562,	r13	;#0x0232
    c9cc:	3e 40 16 02 	mov	#534,	r14	;#0x0216
    c9d0:	0f 43       	clr	r15		
    c9d2:	b0 12 5a d3 	call	#0xd35a	
    c9d6:	31 50 06 00 	add	#6,	r1	;#0x0006
    c9da:	78 3c       	jmp	$+242    	;abs 0xcacc
    c9dc:	92 43 6e 02 	mov	#1,	&0x026e	;r3 As==01
    c9e0:	1f f3       	and	#1,	r15	;r3 As==01
    c9e2:	03 24       	jz	$+8      	;abs 0xc9ea
    c9e4:	7f 40 0a 00 	mov.b	#10,	r15	;#0x000a
    c9e8:	02 3c       	jmp	$+6      	;abs 0xc9ee
    c9ea:	7f 40 10 00 	mov.b	#16,	r15	;#0x0010
    c9ee:	4f 12       	push.b	r15		
    c9f0:	63 12       	push.b	#2		;r3 As==10
    c9f2:	0c 12       	push	r12		
    c9f4:	0c 4e       	mov	r14,	r12	
    c9f6:	3d 40 24 02 	mov	#548,	r13	;#0x0224
    c9fa:	3e 40 16 02 	mov	#534,	r14	;#0x0216
    c9fe:	0f 43       	clr	r15		
    ca00:	b0 12 5a d3 	call	#0xd35a	
    ca04:	31 50 06 00 	add	#6,	r1	;#0x0006
    ca08:	61 3c       	jmp	$+196    	;abs 0xcacc
    ca0a:	92 43 6e 02 	mov	#1,	&0x026e	;r3 As==01
    ca0e:	63 12       	push.b	#2		;r3 As==10
    ca10:	0d 4e       	mov	r14,	r13	
    ca12:	0e 43       	clr	r14		
    ca14:	3f 40 16 02 	mov	#534,	r15	;#0x0216
    ca18:	b0 12 d2 d3 	call	#0xd3d2	
    ca1c:	21 53       	incd	r1		
    ca1e:	56 3c       	jmp	$+174    	;abs 0xcacc
    ca20:	92 43 6e 02 	mov	#1,	&0x026e	;r3 As==01
    ca24:	63 12       	push.b	#2		;r3 As==10
    ca26:	0d 4e       	mov	r14,	r13	
    ca28:	0e 43       	clr	r14		
    ca2a:	3f 40 32 02 	mov	#562,	r15	;#0x0232
    ca2e:	b0 12 d2 d3 	call	#0xd3d2	
    ca32:	21 53       	incd	r1		
    ca34:	4b 3c       	jmp	$+152    	;abs 0xcacc
    ca36:	1f f3       	and	#1,	r15	;r3 As==01
    ca38:	03 24       	jz	$+8      	;abs 0xca40
    ca3a:	7f 40 0a 00 	mov.b	#10,	r15	;#0x000a
    ca3e:	02 3c       	jmp	$+6      	;abs 0xca44
    ca40:	7f 40 10 00 	mov.b	#16,	r15	;#0x0010
    ca44:	4f 12       	push.b	r15		
    ca46:	63 12       	push.b	#2		;r3 As==10
    ca48:	0c 12       	push	r12		
    ca4a:	0c 4e       	mov	r14,	r12	
    ca4c:	3d 40 32 02 	mov	#562,	r13	;#0x0232
    ca50:	3e 40 16 02 	mov	#534,	r14	;#0x0216
    ca54:	0f 4e       	mov	r14,	r15	
    ca56:	b0 12 5a d3 	call	#0xd35a	
    ca5a:	31 50 06 00 	add	#6,	r1	;#0x0006
    ca5e:	36 3c       	jmp	$+110    	;abs 0xcacc
    ca60:	0d 4c       	mov	r12,	r13	
    ca62:	3f 40 16 02 	mov	#534,	r15	;#0x0216
    ca66:	b0 12 5c d4 	call	#0xd45c	
    ca6a:	30 3c       	jmp	$+98     	;abs 0xcacc
    ca6c:	0d 4c       	mov	r12,	r13	
    ca6e:	3f 40 24 02 	mov	#548,	r15	;#0x0224
    ca72:	b0 12 5c d4 	call	#0xd45c	
    ca76:	2a 3c       	jmp	$+86     	;abs 0xcacc
    ca78:	0d 4c       	mov	r12,	r13	
    ca7a:	3f 40 32 02 	mov	#562,	r15	;#0x0232
    ca7e:	b0 12 5c d4 	call	#0xd45c	
    ca82:	24 3c       	jmp	$+74     	;abs 0xcacc
    ca84:	2e f2       	and	#4,	r14	;r2 As==10
    ca86:	22 20       	jnz	$+70     	;abs 0xcacc
    ca88:	0f 11       	rra	r15		
    ca8a:	0f 11       	rra	r15		
    ca8c:	3d f0 00 ff 	and	#-256,	r13	;#0xff00
    ca90:	0f dd       	bis	r13,	r15	
    ca92:	82 4f 6a 02 	mov	r15,	&0x026a	
    ca96:	3f 40 16 02 	mov	#534,	r15	;#0x0216
    ca9a:	b0 12 04 cb 	call	#0xcb04	
    ca9e:	16 3c       	jmp	$+46     	;abs 0xcacc
    caa0:	2e f2       	and	#4,	r14	;r2 As==10
    caa2:	14 20       	jnz	$+42     	;abs 0xcacc
    caa4:	3d f0 00 fc 	and	#-1024,	r13	;#0xfc00
    caa8:	0f dd       	bis	r13,	r15	
    caaa:	82 4f 6a 02 	mov	r15,	&0x026a	
    caae:	0e 3c       	jmp	$+30     	;abs 0xcacc
    cab0:	3f 90 30 02 	cmp	#560,	r15	;#0x0230
    cab4:	02 20       	jnz	$+6      	;abs 0xcaba
    cab6:	b0 12 88 cc 	call	#0xcc88	
    caba:	1f 42 6a 02 	mov	&0x026a,r15	
    cabe:	3f f0 ff 03 	and	#1023,	r15	;#0x03ff
    cac2:	04 20       	jnz	$+10     	;abs 0xcacc
    cac4:	82 43 6e 02 	mov	#0,	&0x026e	;r3 As==00
    cac8:	b0 12 2a cb 	call	#0xcb2a	
    cacc:	82 93 6e 02 	tst	&0x026e	
    cad0:	02 24       	jz	$+6      	;abs 0xcad6
    cad2:	30 40 74 c4 	br	#0xc474	
    cad6:	5f 42 12 02 	mov.b	&0x0212,r15	
    cada:	3f f2       	and	#8,	r15	;r2 As==11
    cadc:	05 24       	jz	$+12     	;abs 0xcae8
    cade:	3f 40 57 02 	mov	#599,	r15	;#0x0257
    cae2:	1f 83       	dec	r15		
    cae4:	fe 23       	jnz	$-2      	;abs 0xcae2
    cae6:	03 43       	nop			
    cae8:	5f 42 12 02 	mov.b	&0x0212,r15	
    caec:	4f 93       	tst.b	r15		
    caee:	02 24       	jz	$+6      	;abs 0xcaf4
    caf0:	30 40 96 c3 	br	#0xc396	
    caf4:	30 40 74 c4 	br	#0xc474	

0000caf8 <__stop_progExec__>:
    caf8:	32 d0 f0 00 	bis	#240,	r2	;#0x00f0
    cafc:	fd 3f       	jmp	$-4      	;abs 0xcaf8

0000cafe <__ctors_end>:
    cafe:	30 40 3a da 	br	#0xda3a	

0000cb02 <bad_op>:
    cb02:	30 41       	ret			

0000cb04 <handle_del_rom>:
    cb04:	5d 4f 4f 00 	mov.b	79(r15),r13	;0x004f(r15)
    cb08:	3d b2       	bit	#8,	r13	;r2 As==11
    cb0a:	0e 24       	jz	$+30     	;abs 0xcb28
    cb0c:	1c 4f 54 00 	mov	84(r15),r12	;0x0054(r15)
    cb10:	3c f0 ff 00 	and	#255,	r12	;#0x00ff
    cb14:	5e 4f 56 00 	mov.b	86(r15),r14	;0x0056(r15)
    cb18:	8e 10       	swpb	r14		
    cb1a:	0c 5e       	add	r14,	r12	
    cb1c:	8f 4c 54 00 	mov	r12,	84(r15)	;0x0054(r15)
    cb20:	7d f0 f7 ff 	and.b	#-9,	r13	;#0xfff7
    cb24:	cf 4d 4f 00 	mov.b	r13,	79(r15)	;0x004f(r15)
    cb28:	30 41       	ret			

0000cb2a <op_return>:
    cb2a:	1f 42 70 02 	mov	&0x0270,r15	
    cb2e:	3f 53       	add	#-1,	r15	;r3 As==11
    cb30:	82 4f 70 02 	mov	r15,	&0x0270	
    cb34:	0f 93       	tst	r15		
    cb36:	02 34       	jge	$+6      	;abs 0xcb3c
    cb38:	92 43 70 02 	mov	#1,	&0x0270	;r3 As==01
    cb3c:	1f 42 70 02 	mov	&0x0270,r15	
    cb40:	3f 50 2e 00 	add	#46,	r15	;#0x002e
    cb44:	0f 5f       	rla	r15		
    cb46:	92 4f 16 02 	mov	534(r15),&0x026a	;0x0216(r15)
    cb4a:	6a 02 
    cb4c:	30 41       	ret			

0000cb4e <op_nop>:
    cb4e:	30 41       	ret			

0000cb50 <op_binary>:
    cb50:	f2 f0 fe ff 	and.b	#-2,	&0x0265	;#0xfffe
    cb54:	65 02 
    cb56:	30 41       	ret			

0000cb58 <op_decimal>:
    cb58:	d2 d3 65 02 	bis.b	#1,	&0x0265	;r3 As==01
    cb5c:	30 41       	ret			

0000cb5e <op_dec_p>:
    cb5e:	5f 42 64 02 	mov.b	&0x0264,r15	
    cb62:	4f 93       	tst.b	r15		
    cb64:	04 24       	jz	$+10     	;abs 0xcb6e
    cb66:	7f 53       	add.b	#-1,	r15	;r3 As==11
    cb68:	c2 4f 64 02 	mov.b	r15,	&0x0264	
    cb6c:	30 41       	ret			
    cb6e:	f2 40 0d 00 	mov.b	#13,	&0x0264	;#0x000d
    cb72:	64 02 
    cb74:	30 41       	ret			

0000cb76 <op_inc_p>:
    cb76:	5f 42 64 02 	mov.b	&0x0264,r15	
    cb7a:	5f 53       	inc.b	r15		
    cb7c:	c2 4f 64 02 	mov.b	r15,	&0x0264	
    cb80:	7f 90 0e 00 	cmp.b	#14,	r15	;#0x000e
    cb84:	02 28       	jnc	$+6      	;abs 0xcb8a
    cb86:	c2 43 64 02 	mov.b	#0,	&0x0264	;r3 As==00
    cb8a:	30 41       	ret			

0000cb8c <op_clear_s>:
    cb8c:	1c 42 68 02 	mov	&0x0268,r12	
    cb90:	0f 43       	clr	r15		
    cb92:	0e 4f       	mov	r15,	r14	
    cb94:	3e 53       	add	#-1,	r14	;r3 As==11
    cb96:	2e 93       	cmp	#2,	r14	;r3 As==10
    cb98:	10 28       	jnc	$+34     	;abs 0xcbba
    cb9a:	3f 90 05 00 	cmp	#5,	r15	;#0x0005
    cb9e:	0d 24       	jz	$+28     	;abs 0xcbba
    cba0:	3f 90 0f 00 	cmp	#15,	r15	;#0x000f
    cba4:	0a 24       	jz	$+22     	;abs 0xcbba
    cba6:	1e 43       	mov	#1,	r14	;r3 As==01
    cba8:	4d 4f       	mov.b	r15,	r13	
    cbaa:	7d f0 0f 00 	and.b	#15,	r13	;#0x000f
    cbae:	4d 93       	tst.b	r13		
    cbb0:	03 24       	jz	$+8      	;abs 0xcbb8
    cbb2:	0e 5e       	rla	r14		
    cbb4:	7d 53       	add.b	#-1,	r13	;r3 As==11
    cbb6:	fb 3f       	jmp	$-8      	;abs 0xcbae
    cbb8:	0c ce       	bic	r14,	r12	
    cbba:	1f 53       	inc	r15		
    cbbc:	3f 90 10 00 	cmp	#16,	r15	;#0x0010
    cbc0:	e8 23       	jnz	$-46     	;abs 0xcb92
    cbc2:	82 4c 68 02 	mov	r12,	&0x0268	
    cbc6:	30 41       	ret			

0000cbc8 <op_mx>:
    cbc8:	0b 12       	push	r11		
    cbca:	0a 12       	push	r10		
    cbcc:	09 12       	push	r9		
    cbce:	7e 40 06 00 	mov.b	#6,	r14	;#0x0006
    cbd2:	0f 11       	rra	r15		
    cbd4:	7e 53       	add.b	#-1,	r14	;r3 As==11
    cbd6:	fd 23       	jnz	$-4      	;abs 0xcbd2
    cbd8:	2f b3       	bit	#2,	r15	;r3 As==10
    cbda:	03 24       	jz	$+8      	;abs 0xcbe2
    cbdc:	39 40 5c 02 	mov	#604,	r9	;#0x025c
    cbe0:	02 3c       	jmp	$+6      	;abs 0xcbe6
    cbe2:	39 40 55 02 	mov	#597,	r9	;#0x0255
    cbe6:	1f f3       	and	#1,	r15	;r3 As==01
    cbe8:	3d 40 32 02 	mov	#562,	r13	;#0x0232
    cbec:	0a 43       	clr	r10		
    cbee:	0b 43       	clr	r11		
    cbf0:	1b b3       	bit	#1,	r11	;r3 As==01
    cbf2:	1f 24       	jz	$+64     	;abs 0xcc32
    cbf4:	6e 4d       	mov.b	@r13,	r14	
    cbf6:	0e 5e       	rla	r14		
    cbf8:	0e 5e       	rla	r14		
    cbfa:	0e 5e       	rla	r14		
    cbfc:	0e 5e       	rla	r14		
    cbfe:	0a de       	bis	r14,	r10	
    cc00:	0e 4b       	mov	r11,	r14	
    cc02:	0e 11       	rra	r14		
    cc04:	0c 49       	mov	r9,	r12	
    cc06:	0c 5e       	add	r14,	r12	
    cc08:	6e 4c       	mov.b	@r12,	r14	
    cc0a:	12 c3       	clrc			
    cc0c:	4e 10       	rrc.b	r14		
    cc0e:	12 c3       	clrc			
    cc10:	4e 10       	rrc.b	r14		
    cc12:	12 c3       	clrc			
    cc14:	4e 10       	rrc.b	r14		
    cc16:	12 c3       	clrc			
    cc18:	4e 10       	rrc.b	r14		
    cc1a:	cd 4e 00 00 	mov.b	r14,	0(r13)	;0x0000(r13)
    cc1e:	6e 4c       	mov.b	@r12,	r14	
    cc20:	7e f0 0f 00 	and.b	#15,	r14	;#0x000f
    cc24:	cd 4e ff ff 	mov.b	r14,	-1(r13)	;0xffff(r13)
    cc28:	0f 93       	tst	r15		
    cc2a:	06 20       	jnz	$+14     	;abs 0xcc38
    cc2c:	cc 4a 00 00 	mov.b	r10,	0(r12)	;0x0000(r12)
    cc30:	03 3c       	jmp	$+8      	;abs 0xcc38
    cc32:	6a 4d       	mov.b	@r13,	r10	
    cc34:	3a f0 0f 00 	and	#15,	r10	;#0x000f
    cc38:	1b 53       	inc	r11		
    cc3a:	1d 53       	inc	r13		
    cc3c:	3b 90 0e 00 	cmp	#14,	r11	;#0x000e
    cc40:	d7 23       	jnz	$-80     	;abs 0xcbf0
    cc42:	39 41       	pop	r9		
    cc44:	3a 41       	pop	r10		
    cc46:	3b 41       	pop	r11		
    cc48:	30 41       	ret			

0000cc4a <op_f_to_a>:
    cc4a:	3f 40 16 02 	mov	#534,	r15	;#0x0216
    cc4e:	df 4f 4d 00 	mov.b	77(r15),0(r15)	;0x004d(r15), 0x0000(r15)
    cc52:	00 00 
    cc54:	30 41       	ret			

0000cc56 <op_f_exch_a>:
    cc56:	3f 40 16 02 	mov	#534,	r15	;#0x0216
    cc5a:	6d 4f       	mov.b	@r15,	r13	
    cc5c:	0e 4f       	mov	r15,	r14	
    cc5e:	3e 50 4d 00 	add	#77,	r14	;#0x004d
    cc62:	ef 4e 00 00 	mov.b	@r14,	0(r15)	;0x0000(r15)
    cc66:	ce 4d 00 00 	mov.b	r13,	0(r14)	;0x0000(r14)
    cc6a:	30 41       	ret			

0000cc6c <op_circulate_a_left>:
    cc6c:	5e 42 23 02 	mov.b	&0x0223,r14	
    cc70:	3f 40 23 02 	mov	#547,	r15	;#0x0223
    cc74:	df 4f ff ff 	mov.b	-1(r15),0(r15)	;0xffff(r15), 0x0000(r15)
    cc78:	00 00 
    cc7a:	3f 53       	add	#-1,	r15	;r3 As==11
    cc7c:	3f 90 16 02 	cmp	#534,	r15	;#0x0216
    cc80:	f9 23       	jnz	$-12     	;abs 0xcc74
    cc82:	c2 4e 16 02 	mov.b	r14,	&0x0216	
    cc86:	30 41       	ret			

0000cc88 <op_bank_switch>:
    cc88:	f2 50 80 ff 	add.b	#-128,	&0x0265	;#0xff80
    cc8c:	65 02 
    cc8e:	30 41       	ret			

0000cc90 <op_rom_selftest>:
    cc90:	3f 40 6e 02 	mov	#622,	r15	;#0x026e
    cc94:	af 43 00 00 	mov	#2,	0(r15)	;r3 As==10, 0x0000(r15)
    cc98:	bf f0 00 fc 	and	#-1024,	-4(r15)	;#0xfc00, 0xfffc(r15)
    cc9c:	fc ff 
    cc9e:	30 41       	ret			

0000cca0 <op_c_to_addr>:
    cca0:	3e 40 7e 02 	mov	#638,	r14	;#0x027e
    cca4:	5f 4e b5 ff 	mov.b	-75(r14),r15	;0xffb5(r14)
    cca8:	0f 5f       	rla	r15		
    ccaa:	0f 5f       	rla	r15		
    ccac:	0f 5f       	rla	r15		
    ccae:	0f 5f       	rla	r15		
    ccb0:	5d 4e b4 ff 	mov.b	-76(r14),r13	;0xffb4(r14)
    ccb4:	0f 5d       	add	r13,	r15	
    ccb6:	8e 4f 00 00 	mov	r15,	0(r14)	;0x0000(r14)
    ccba:	30 41       	ret			

0000ccbc <op_c_to_data>:
    ccbc:	0b 12       	push	r11		
    ccbe:	0a 12       	push	r10		
    ccc0:	1b 42 7e 02 	mov	&0x027e,r11	
    ccc4:	3b 90 20 00 	cmp	#32,	r11	;#0x0020
    ccc8:	1b 34       	jge	$+56     	;abs 0xcd00
    ccca:	3e 40 33 02 	mov	#563,	r14	;#0x0233
    ccce:	0d 43       	clr	r13		
    ccd0:	0f 4b       	mov	r11,	r15	
    ccd2:	0f 5f       	rla	r15		
    ccd4:	0f 5f       	rla	r15		
    ccd6:	0f 5f       	rla	r15		
    ccd8:	0c 4f       	mov	r15,	r12	
    ccda:	0c 8b       	sub	r11,	r12	
    ccdc:	0c 5d       	add	r13,	r12	
    ccde:	6f 4e       	mov.b	@r14,	r15	
    cce0:	0f 5f       	rla	r15		
    cce2:	0f 5f       	rla	r15		
    cce4:	0f 5f       	rla	r15		
    cce6:	0f 5f       	rla	r15		
    cce8:	5a 4e ff ff 	mov.b	-1(r14),r10	;0xffff(r14)
    ccec:	7a f0 0f 00 	and.b	#15,	r10	;#0x000f
    ccf0:	4a df       	bis.b	r15,	r10	
    ccf2:	cc 4a 80 02 	mov.b	r10,	640(r12);0x0280(r12)
    ccf6:	1d 53       	inc	r13		
    ccf8:	2e 53       	incd	r14		
    ccfa:	3d 90 07 00 	cmp	#7,	r13	;#0x0007
    ccfe:	e8 23       	jnz	$-46     	;abs 0xccd0
    cd00:	3a 41       	pop	r10		
    cd02:	3b 41       	pop	r11		
    cd04:	30 41       	ret			

0000cd06 <op_c_to_register>:
    cd06:	0b 12       	push	r11		
    cd08:	0a 12       	push	r10		
    cd0a:	1d 42 7e 02 	mov	&0x027e,r13	
    cd0e:	3d f0 f0 ff 	and	#-16,	r13	;#0xfff0
    cd12:	7e 40 06 00 	mov.b	#6,	r14	;#0x0006
    cd16:	0f 11       	rra	r15		
    cd18:	7e 53       	add.b	#-1,	r14	;r3 As==11
    cd1a:	fd 23       	jnz	$-4      	;abs 0xcd16
    cd1c:	0f 5d       	add	r13,	r15	
    cd1e:	82 4f 7e 02 	mov	r15,	&0x027e	
    cd22:	3f 90 20 00 	cmp	#32,	r15	;#0x0020
    cd26:	1b 34       	jge	$+56     	;abs 0xcd5e
    cd28:	3d 40 33 02 	mov	#563,	r13	;#0x0233
    cd2c:	0c 43       	clr	r12		
    cd2e:	0e 4f       	mov	r15,	r14	
    cd30:	0e 5e       	rla	r14		
    cd32:	0e 5e       	rla	r14		
    cd34:	0e 5e       	rla	r14		
    cd36:	0b 4e       	mov	r14,	r11	
    cd38:	0b 8f       	sub	r15,	r11	
    cd3a:	0b 5c       	add	r12,	r11	
    cd3c:	6e 4d       	mov.b	@r13,	r14	
    cd3e:	0e 5e       	rla	r14		
    cd40:	0e 5e       	rla	r14		
    cd42:	0e 5e       	rla	r14		
    cd44:	0e 5e       	rla	r14		
    cd46:	5a 4d ff ff 	mov.b	-1(r13),r10	;0xffff(r13)
    cd4a:	7a f0 0f 00 	and.b	#15,	r10	;#0x000f
    cd4e:	4a de       	bis.b	r14,	r10	
    cd50:	cb 4a 80 02 	mov.b	r10,	640(r11);0x0280(r11)
    cd54:	1c 53       	inc	r12		
    cd56:	2d 53       	incd	r13		
    cd58:	3c 90 07 00 	cmp	#7,	r12	;#0x0007
    cd5c:	e8 23       	jnz	$-46     	;abs 0xcd2e
    cd5e:	3a 41       	pop	r10		
    cd60:	3b 41       	pop	r11		
    cd62:	30 41       	ret			

0000cd64 <op_register_to_c>:
    cd64:	7e 40 06 00 	mov.b	#6,	r14	;#0x0006
    cd68:	0f 11       	rra	r15		
    cd6a:	7e 53       	add.b	#-1,	r14	;r3 As==11
    cd6c:	fd 23       	jnz	$-4      	;abs 0xcd68
    cd6e:	0f 93       	tst	r15		
    cd70:	07 24       	jz	$+16     	;abs 0xcd80
    cd72:	1e 42 7e 02 	mov	&0x027e,r14	
    cd76:	3e f0 f0 ff 	and	#-16,	r14	;#0xfff0
    cd7a:	0e 5f       	add	r15,	r14	
    cd7c:	82 4e 7e 02 	mov	r14,	&0x027e	
    cd80:	1c 42 7e 02 	mov	&0x027e,r12	
    cd84:	3c 90 20 00 	cmp	#32,	r12	;#0x0020
    cd88:	0b 38       	jl	$+24     	;abs 0xcda0
    cd8a:	3f 40 32 02 	mov	#562,	r15	;#0x0232
    cd8e:	0e 43       	clr	r14		
    cd90:	cf 43 00 00 	mov.b	#0,	0(r15)	;r3 As==00, 0x0000(r15)
    cd94:	1e 53       	inc	r14		
    cd96:	1f 53       	inc	r15		
    cd98:	3e 90 0e 00 	cmp	#14,	r14	;#0x000e
    cd9c:	f9 23       	jnz	$-12     	;abs 0xcd90
    cd9e:	30 41       	ret			
    cda0:	3e 40 33 02 	mov	#563,	r14	;#0x0233
    cda4:	0d 43       	clr	r13		
    cda6:	0f 4c       	mov	r12,	r15	
    cda8:	0f 5f       	rla	r15		
    cdaa:	0f 5f       	rla	r15		
    cdac:	0f 5f       	rla	r15		
    cdae:	0f 8c       	sub	r12,	r15	
    cdb0:	3f 50 16 02 	add	#534,	r15	;#0x0216
    cdb4:	0f 5d       	add	r13,	r15	
    cdb6:	5f 4f 6a 00 	mov.b	106(r15),r15	;0x006a(r15)
    cdba:	ce 4f 00 00 	mov.b	r15,	0(r14)	;0x0000(r14)
    cdbe:	12 c3       	clrc			
    cdc0:	6e 10       	rrc.b	@r14		
    cdc2:	12 c3       	clrc			
    cdc4:	6e 10       	rrc.b	@r14		
    cdc6:	12 c3       	clrc			
    cdc8:	6e 10       	rrc.b	@r14		
    cdca:	12 c3       	clrc			
    cdcc:	6e 10       	rrc.b	@r14		
    cdce:	7f f0 0f 00 	and.b	#15,	r15	;#0x000f
    cdd2:	ce 4f ff ff 	mov.b	r15,	-1(r14)	;0xffff(r14)
    cdd6:	1d 53       	inc	r13		
    cdd8:	2e 53       	incd	r14		
    cdda:	3d 90 07 00 	cmp	#7,	r13	;#0x0007
    cdde:	e3 23       	jnz	$-56     	;abs 0xcda6
    cde0:	30 41       	ret			

0000cde2 <op_clear_data_regs>:
    cde2:	1d 42 7e 02 	mov	&0x027e,r13	
    cde6:	3d f0 f0 ff 	and	#-16,	r13	;#0xfff0
    cdea:	0f 4d       	mov	r13,	r15	
    cdec:	0f 5f       	rla	r15		
    cdee:	0f 5f       	rla	r15		
    cdf0:	0f 5f       	rla	r15		
    cdf2:	0f 8d       	sub	r13,	r15	
    cdf4:	3f 50 6b 00 	add	#107,	r15	;#0x006b
    cdf8:	3f 50 16 02 	add	#534,	r15	;#0x0216
    cdfc:	0c 4d       	mov	r13,	r12	
    cdfe:	3c 50 10 00 	add	#16,	r12	;#0x0010
    ce02:	0d 9c       	cmp	r12,	r13	
    ce04:	17 24       	jz	$+48     	;abs 0xce34
    ce06:	0e 4d       	mov	r13,	r14	
    ce08:	0e 5e       	rla	r14		
    ce0a:	0e 5e       	rla	r14		
    ce0c:	0e 5e       	rla	r14		
    ce0e:	0e 8d       	sub	r13,	r14	
    ce10:	ce 43 80 02 	mov.b	#0,	640(r14);r3 As==00, 0x0280(r14)
    ce14:	cf 43 00 00 	mov.b	#0,	0(r15)	;r3 As==00, 0x0000(r15)
    ce18:	cf 43 01 00 	mov.b	#0,	1(r15)	;r3 As==00, 0x0001(r15)
    ce1c:	cf 43 02 00 	mov.b	#0,	2(r15)	;r3 As==00, 0x0002(r15)
    ce20:	cf 43 03 00 	mov.b	#0,	3(r15)	;r3 As==00, 0x0003(r15)
    ce24:	cf 43 04 00 	mov.b	#0,	4(r15)	;r3 As==00, 0x0004(r15)
    ce28:	cf 43 05 00 	mov.b	#0,	5(r15)	;r3 As==00, 0x0005(r15)
    ce2c:	1d 53       	inc	r13		
    ce2e:	3f 50 07 00 	add	#7,	r15	;#0x0007
    ce32:	e7 3f       	jmp	$-48     	;abs 0xce02
    ce34:	30 41       	ret			

0000ce36 <op_c_to_stack>:
    ce36:	0b 12       	push	r11		
    ce38:	3e 40 47 02 	mov	#583,	r14	;#0x0247
    ce3c:	0d 4e       	mov	r14,	r13	
    ce3e:	3d 50 eb ff 	add	#-21,	r13	;#0xffeb
    ce42:	0c 43       	clr	r12		
    ce44:	ee 4e 07 00 	mov.b	@r14,	7(r14)	;0x0007(r14)
    ce48:	de 4e f9 ff 	mov.b	-7(r14),0(r14)	;0xfff9(r14), 0x0000(r14)
    ce4c:	00 00 
    ce4e:	5f 4d 01 00 	mov.b	1(r13),	r15	;0x0001(r13)
    ce52:	0f 5f       	rla	r15		
    ce54:	0f 5f       	rla	r15		
    ce56:	0f 5f       	rla	r15		
    ce58:	0f 5f       	rla	r15		
    ce5a:	6b 4d       	mov.b	@r13,	r11	
    ce5c:	7b f0 0f 00 	and.b	#15,	r11	;#0x000f
    ce60:	4b df       	bis.b	r15,	r11	
    ce62:	ce 4b f9 ff 	mov.b	r11,	-7(r14)	;0xfff9(r14)
    ce66:	1c 53       	inc	r12		
    ce68:	1e 53       	inc	r14		
    ce6a:	2d 53       	incd	r13		
    ce6c:	3c 90 07 00 	cmp	#7,	r12	;#0x0007
    ce70:	e9 23       	jnz	$-44     	;abs 0xce44
    ce72:	3b 41       	pop	r11		
    ce74:	30 41       	ret			

0000ce76 <op_stack_to_a>:
    ce76:	3f 40 16 02 	mov	#534,	r15	;#0x0216
    ce7a:	0e 4f       	mov	r15,	r14	
    ce7c:	3e 50 31 00 	add	#49,	r14	;#0x0031
    ce80:	5d 4e f9 ff 	mov.b	-7(r14),r13	;0xfff9(r14)
    ce84:	4c 4d       	mov.b	r13,	r12	
    ce86:	7c f0 0f 00 	and.b	#15,	r12	;#0x000f
    ce8a:	cf 4c 00 00 	mov.b	r12,	0(r15)	;0x0000(r15)
    ce8e:	cf 4d 01 00 	mov.b	r13,	1(r15)	;0x0001(r15)
    ce92:	12 c3       	clrc			
    ce94:	5f 10 01 00 	rrc.b	1(r15)		;0x0001(r15)
    ce98:	12 c3       	clrc			
    ce9a:	5f 10 01 00 	rrc.b	1(r15)		;0x0001(r15)
    ce9e:	12 c3       	clrc			
    cea0:	5f 10 01 00 	rrc.b	1(r15)		;0x0001(r15)
    cea4:	12 c3       	clrc			
    cea6:	5f 10 01 00 	rrc.b	1(r15)		;0x0001(r15)
    ceaa:	ee 4e f9 ff 	mov.b	@r14,	-7(r14)	;0xfff9(r14)
    ceae:	de 4e 07 00 	mov.b	7(r14),	0(r14)	;0x0007(r14), 0x0000(r14)
    ceb2:	00 00 
    ceb4:	2f 53       	incd	r15		
    ceb6:	1e 53       	inc	r14		
    ceb8:	3f 90 24 02 	cmp	#548,	r15	;#0x0224
    cebc:	e1 23       	jnz	$-60     	;abs 0xce80
    cebe:	30 41       	ret			

0000cec0 <op_y_to_a>:
    cec0:	0b 12       	push	r11		
    cec2:	3e 40 40 02 	mov	#576,	r14	;#0x0240
    cec6:	3f 40 16 02 	mov	#534,	r15	;#0x0216
    ceca:	0d 43       	clr	r13		
    cecc:	7c 4e       	mov.b	@r14+,	r12	
    cece:	4b 4c       	mov.b	r12,	r11	
    ced0:	7b f0 0f 00 	and.b	#15,	r11	;#0x000f
    ced4:	cf 4b 00 00 	mov.b	r11,	0(r15)	;0x0000(r15)
    ced8:	cf 4c 01 00 	mov.b	r12,	1(r15)	;0x0001(r15)
    cedc:	12 c3       	clrc			
    cede:	5f 10 01 00 	rrc.b	1(r15)		;0x0001(r15)
    cee2:	12 c3       	clrc			
    cee4:	5f 10 01 00 	rrc.b	1(r15)		;0x0001(r15)
    cee8:	12 c3       	clrc			
    ceea:	5f 10 01 00 	rrc.b	1(r15)		;0x0001(r15)
    ceee:	12 c3       	clrc			
    cef0:	5f 10 01 00 	rrc.b	1(r15)		;0x0001(r15)
    cef4:	1d 53       	inc	r13		
    cef6:	2f 53       	incd	r15		
    cef8:	3d 90 07 00 	cmp	#7,	r13	;#0x0007
    cefc:	e7 23       	jnz	$-48     	;abs 0xcecc
    cefe:	3b 41       	pop	r11		
    cf00:	30 41       	ret			

0000cf02 <op_down_rotate>:
    cf02:	0b 12       	push	r11		
    cf04:	0a 12       	push	r10		
    cf06:	09 12       	push	r9		
    cf08:	3e 40 16 02 	mov	#534,	r14	;#0x0216
    cf0c:	0d 4e       	mov	r14,	r13	
    cf0e:	0c 43       	clr	r12		
    cf10:	5f 4e 1d 00 	mov.b	29(r14),r15	;0x001d(r14)
    cf14:	0f 5f       	rla	r15		
    cf16:	0f 5f       	rla	r15		
    cf18:	0f 5f       	rla	r15		
    cf1a:	0f 5f       	rla	r15		
    cf1c:	5b 4e 1c 00 	mov.b	28(r14),r11	;0x001c(r14)
    cf20:	3b f0 0f 00 	and	#15,	r11	;#0x000f
    cf24:	5a 4d 2a 00 	mov.b	42(r13),r10	;0x002a(r13)
    cf28:	49 4a       	mov.b	r10,	r9	
    cf2a:	79 f0 0f 00 	and.b	#15,	r9	;#0x000f
    cf2e:	ce 49 1c 00 	mov.b	r9,	28(r14)	;0x001c(r14)
    cf32:	ce 4a 1d 00 	mov.b	r10,	29(r14)	;0x001d(r14)
    cf36:	12 c3       	clrc			
    cf38:	5e 10 1d 00 	rrc.b	29(r14)	;0x001d(r14)
    cf3c:	12 c3       	clrc			
    cf3e:	5e 10 1d 00 	rrc.b	29(r14)	;0x001d(r14)
    cf42:	12 c3       	clrc			
    cf44:	5e 10 1d 00 	rrc.b	29(r14)	;0x001d(r14)
    cf48:	12 c3       	clrc			
    cf4a:	5e 10 1d 00 	rrc.b	29(r14)	;0x001d(r14)
    cf4e:	dd 4d 31 00 	mov.b	49(r13),42(r13)	;0x0031(r13), 0x002a(r13)
    cf52:	2a 00 
    cf54:	dd 4d 38 00 	mov.b	56(r13),49(r13)	;0x0038(r13), 0x0031(r13)
    cf58:	31 00 
    cf5a:	4f db       	bis.b	r11,	r15	
    cf5c:	cd 4f 38 00 	mov.b	r15,	56(r13)	;0x0038(r13)
    cf60:	1c 53       	inc	r12		
    cf62:	2e 53       	incd	r14		
    cf64:	1d 53       	inc	r13		
    cf66:	3c 90 07 00 	cmp	#7,	r12	;#0x0007
    cf6a:	d2 23       	jnz	$-90     	;abs 0xcf10
    cf6c:	39 41       	pop	r9		
    cf6e:	3a 41       	pop	r10		
    cf70:	3b 41       	pop	r11		
    cf72:	30 41       	ret			

0000cf74 <op_clear_reg>:
    cf74:	3f 40 32 02 	mov	#562,	r15	;#0x0232
    cf78:	0e 43       	clr	r14		
    cf7a:	6d 4f       	mov.b	@r15,	r13	
    cf7c:	cf 4d f2 ff 	mov.b	r13,	-14(r15);0xfff2(r15)
    cf80:	cf 4d e4 ff 	mov.b	r13,	-28(r15);0xffe4(r15)
    cf84:	1e 53       	inc	r14		
    cf86:	1f 53       	inc	r15		
    cf88:	3e 90 0e 00 	cmp	#14,	r14	;#0x000e
    cf8c:	f6 23       	jnz	$-18     	;abs 0xcf7a
    cf8e:	3f 40 4e 02 	mov	#590,	r15	;#0x024e
    cf92:	0e 43       	clr	r14		
    cf94:	cf 43 00 00 	mov.b	#0,	0(r15)	;r3 As==00, 0x0000(r15)
    cf98:	cf 43 f9 ff 	mov.b	#0,	-7(r15)	;r3 As==00, 0xfff9(r15)
    cf9c:	cf 43 f2 ff 	mov.b	#0,	-14(r15);r3 As==00, 0xfff2(r15)
    cfa0:	1e 53       	inc	r14		
    cfa2:	1f 53       	inc	r15		
    cfa4:	3e 90 07 00 	cmp	#7,	r14	;#0x0007
    cfa8:	f5 23       	jnz	$-20     	;abs 0xcf94
    cfaa:	30 41       	ret			

0000cfac <op_load_constant>:
    cfac:	5e 42 64 02 	mov.b	&0x0264,r14	
    cfb0:	7e 90 0e 00 	cmp.b	#14,	r14	;#0x000e
    cfb4:	0a 2c       	jc	$+22     	;abs 0xcfca
    cfb6:	4c 4e       	mov.b	r14,	r12	
    cfb8:	7d 40 06 00 	mov.b	#6,	r13	;#0x0006
    cfbc:	0f 11       	rra	r15		
    cfbe:	7d 53       	add.b	#-1,	r13	;r3 As==11
    cfc0:	fd 23       	jnz	$-4      	;abs 0xcfbc
    cfc2:	cc 4f 32 02 	mov.b	r15,	562(r12);0x0232(r12)
    cfc6:	4e 93       	tst.b	r14		
    cfc8:	04 24       	jz	$+10     	;abs 0xcfd2
    cfca:	7e 53       	add.b	#-1,	r14	;r3 As==11
    cfcc:	c2 4e 64 02 	mov.b	r14,	&0x0264	
    cfd0:	30 41       	ret			
    cfd2:	f2 40 0d 00 	mov.b	#13,	&0x0264	;#0x000d
    cfd6:	64 02 
    cfd8:	30 41       	ret			

0000cfda <op_set_s>:
    cfda:	7e 40 06 00 	mov.b	#6,	r14	;#0x0006
    cfde:	0f 11       	rra	r15		
    cfe0:	7e 53       	add.b	#-1,	r14	;r3 As==11
    cfe2:	fd 23       	jnz	$-4      	;abs 0xcfde
    cfe4:	3f 90 10 00 	cmp	#16,	r15	;#0x0010
    cfe8:	0a 34       	jge	$+22     	;abs 0xcffe
    cfea:	1e 43       	mov	#1,	r14	;r3 As==01
    cfec:	7f f0 0f 00 	and.b	#15,	r15	;#0x000f
    cff0:	4f 93       	tst.b	r15		
    cff2:	03 24       	jz	$+8      	;abs 0xcffa
    cff4:	0e 5e       	rla	r14		
    cff6:	7f 53       	add.b	#-1,	r15	;r3 As==11
    cff8:	fb 3f       	jmp	$-8      	;abs 0xcff0
    cffa:	82 de 68 02 	bis	r14,	&0x0268	
    cffe:	30 41       	ret			

0000d000 <op_clr_s>:
    d000:	7e 40 06 00 	mov.b	#6,	r14	;#0x0006
    d004:	0f 11       	rra	r15		
    d006:	7e 53       	add.b	#-1,	r14	;r3 As==11
    d008:	fd 23       	jnz	$-4      	;abs 0xd004
    d00a:	3f 90 10 00 	cmp	#16,	r15	;#0x0010
    d00e:	0a 34       	jge	$+22     	;abs 0xd024
    d010:	1e 43       	mov	#1,	r14	;r3 As==01
    d012:	7f f0 0f 00 	and.b	#15,	r15	;#0x000f
    d016:	4f 93       	tst.b	r15		
    d018:	03 24       	jz	$+8      	;abs 0xd020
    d01a:	0e 5e       	rla	r14		
    d01c:	7f 53       	add.b	#-1,	r15	;r3 As==11
    d01e:	fb 3f       	jmp	$-8      	;abs 0xd016
    d020:	82 ce 68 02 	bic	r14,	&0x0268	
    d024:	30 41       	ret			

0000d026 <op_test_s_eq_0>:
    d026:	92 43 6e 02 	mov	#1,	&0x026e	;r3 As==01
    d02a:	7e 40 06 00 	mov.b	#6,	r14	;#0x0006
    d02e:	0f 11       	rra	r15		
    d030:	7e 53       	add.b	#-1,	r14	;r3 As==11
    d032:	fd 23       	jnz	$-4      	;abs 0xd02e
    d034:	1e 43       	mov	#1,	r14	;r3 As==01
    d036:	7f f0 0f 00 	and.b	#15,	r15	;#0x000f
    d03a:	4f 93       	tst.b	r15		
    d03c:	03 24       	jz	$+8      	;abs 0xd044
    d03e:	0e 5e       	rla	r14		
    d040:	7f 53       	add.b	#-1,	r15	;r3 As==11
    d042:	fb 3f       	jmp	$-8      	;abs 0xd03a
    d044:	1e b2 68 02 	bit	&0x0268,r14	
    d048:	03 24       	jz	$+8      	;abs 0xd050
    d04a:	e2 d3 65 02 	bis.b	#2,	&0x0265	;r3 As==10
    d04e:	30 41       	ret			
    d050:	f2 f0 fd ff 	and.b	#-3,	&0x0265	;#0xfffd
    d054:	65 02 
    d056:	30 41       	ret			

0000d058 <op_test_s_eq_1>:
    d058:	92 43 6e 02 	mov	#1,	&0x026e	;r3 As==01
    d05c:	7e 40 06 00 	mov.b	#6,	r14	;#0x0006
    d060:	0f 11       	rra	r15		
    d062:	7e 53       	add.b	#-1,	r14	;r3 As==11
    d064:	fd 23       	jnz	$-4      	;abs 0xd060
    d066:	1e 43       	mov	#1,	r14	;r3 As==01
    d068:	7f f0 0f 00 	and.b	#15,	r15	;#0x000f
    d06c:	4f 93       	tst.b	r15		
    d06e:	03 24       	jz	$+8      	;abs 0xd076
    d070:	0e 5e       	rla	r14		
    d072:	7f 53       	add.b	#-1,	r15	;r3 As==11
    d074:	fb 3f       	jmp	$-8      	;abs 0xd06c
    d076:	1e b2 68 02 	bit	&0x0268,r14	
    d07a:	04 24       	jz	$+10     	;abs 0xd084
    d07c:	f2 f0 fd ff 	and.b	#-3,	&0x0265	;#0xfffd
    d080:	65 02 
    d082:	30 41       	ret			
    d084:	e2 d3 65 02 	bis.b	#2,	&0x0265	;r3 As==10
    d088:	30 41       	ret			

0000d08a <op_set_p>:
    d08a:	7e 40 06 00 	mov.b	#6,	r14	;#0x0006
    d08e:	0f 11       	rra	r15		
    d090:	7e 53       	add.b	#-1,	r14	;r3 As==11
    d092:	fd 23       	jnz	$-4      	;abs 0xd08e
    d094:	d2 4f 6a ff 	mov.b	-150(r15),&0x0264	;0xff6a(r15)
    d098:	64 02 
    d09a:	30 41       	ret			

0000d09c <op_test_p_eq>:
    d09c:	92 43 6e 02 	mov	#1,	&0x026e	;r3 As==01
    d0a0:	7e 40 06 00 	mov.b	#6,	r14	;#0x0006
    d0a4:	0f 11       	rra	r15		
    d0a6:	7e 53       	add.b	#-1,	r14	;r3 As==11
    d0a8:	fd 23       	jnz	$-4      	;abs 0xd0a4
    d0aa:	d2 9f 7a ff 	cmp.b	-134(r15),&0x0264	;0xff7a(r15)
    d0ae:	64 02 
    d0b0:	04 20       	jnz	$+10     	;abs 0xd0ba
    d0b2:	f2 f0 fd ff 	and.b	#-3,	&0x0265	;#0xfffd
    d0b6:	65 02 
    d0b8:	30 41       	ret			
    d0ba:	e2 d3 65 02 	bis.b	#2,	&0x0265	;r3 As==10
    d0be:	30 41       	ret			

0000d0c0 <op_test_p_ne>:
    d0c0:	92 43 6e 02 	mov	#1,	&0x026e	;r3 As==01
    d0c4:	7e 40 06 00 	mov.b	#6,	r14	;#0x0006
    d0c8:	0f 11       	rra	r15		
    d0ca:	7e 53       	add.b	#-1,	r14	;r3 As==11
    d0cc:	fd 23       	jnz	$-4      	;abs 0xd0c8
    d0ce:	d2 9f 7a ff 	cmp.b	-134(r15),&0x0264	;0xff7a(r15)
    d0d2:	64 02 
    d0d4:	04 24       	jz	$+10     	;abs 0xd0de
    d0d6:	f2 f0 fd ff 	and.b	#-3,	&0x0265	;#0xfffd
    d0da:	65 02 
    d0dc:	30 41       	ret			
    d0de:	e2 d3 65 02 	bis.b	#2,	&0x0265	;r3 As==10
    d0e2:	30 41       	ret			

0000d0e4 <op_sel_rom>:
    d0e4:	3f f0 c0 03 	and	#960,	r15	;#0x03c0
    d0e8:	0f 5f       	rla	r15		
    d0ea:	0f 5f       	rla	r15		
    d0ec:	5e 42 6a 02 	mov.b	&0x026a,r14	
    d0f0:	0e 5f       	add	r15,	r14	
    d0f2:	82 4e 6a 02 	mov	r14,	&0x026a	
    d0f6:	30 41       	ret			

0000d0f8 <op_del_sel_rom>:
    d0f8:	82 4f 6c 02 	mov	r15,	&0x026c	
    d0fc:	7f 40 06 00 	mov.b	#6,	r15	;#0x0006
    d100:	12 11 6c 02 	rra	&0x026c	
    d104:	7f 53       	add.b	#-1,	r15	;r3 As==11
    d106:	fc 23       	jnz	$-6      	;abs 0xd100
    d108:	f2 d2 65 02 	bis.b	#8,	&0x0265	;r2 As==11
    d10c:	30 41       	ret			

0000d10e <op_keys_to_rom_addr>:
    d10e:	b2 f0 00 ff 	and	#-256,	&0x026a	;#0xff00
    d112:	6a 02 
    d114:	3f 40 16 02 	mov	#534,	r15	;#0x0216
    d118:	b0 12 04 cb 	call	#0xcb04	
    d11c:	5f 42 78 02 	mov.b	&0x0278,r15	
    d120:	4f 93       	tst.b	r15		
    d122:	03 24       	jz	$+8      	;abs 0xd12a
    d124:	4f 4f       	mov.b	r15,	r15	
    d126:	82 5f 6a 02 	add	r15,	&0x026a	
    d12a:	30 41       	ret			

0000d12c <op_keys_to_a>:
    d12c:	5f 42 78 02 	mov.b	&0x0278,r15	
    d130:	4f 93       	tst.b	r15		
    d132:	05 20       	jnz	$+12     	;abs 0xd13e
    d134:	c2 43 18 02 	mov.b	#0,	&0x0218	;r3 As==00
    d138:	c2 43 17 02 	mov.b	#0,	&0x0217	;r3 As==00
    d13c:	30 41       	ret			
    d13e:	c2 4f 18 02 	mov.b	r15,	&0x0218	
    d142:	12 c3       	clrc			
    d144:	52 10 18 02 	rrc.b	&0x0218	
    d148:	12 c3       	clrc			
    d14a:	52 10 18 02 	rrc.b	&0x0218	
    d14e:	12 c3       	clrc			
    d150:	52 10 18 02 	rrc.b	&0x0218	
    d154:	12 c3       	clrc			
    d156:	52 10 18 02 	rrc.b	&0x0218	
    d15a:	7f f0 0f 00 	and.b	#15,	r15	;#0x000f
    d15e:	c2 4f 17 02 	mov.b	r15,	&0x0217	
    d162:	30 41       	ret			

0000d164 <op_a_to_rom_addr>:
    d164:	0b 12       	push	r11		
    d166:	3b 40 6a 02 	mov	#618,	r11	;#0x026a
    d16a:	bb f0 00 ff 	and	#-256,	0(r11)	;#0xff00, 0x0000(r11)
    d16e:	00 00 
    d170:	3f 40 16 02 	mov	#534,	r15	;#0x0216
    d174:	b0 12 04 cb 	call	#0xcb04	
    d178:	5f 4b ae ff 	mov.b	-82(r11),r15	;0xffae(r11)
    d17c:	0f 5f       	rla	r15		
    d17e:	0f 5f       	rla	r15		
    d180:	0f 5f       	rla	r15		
    d182:	0f 5f       	rla	r15		
    d184:	5e 4b ad ff 	mov.b	-83(r11),r14	;0xffad(r11)
    d188:	0f 5e       	add	r14,	r15	
    d18a:	8b 5f 00 00 	add	r15,	0(r11)	;0x0000(r11)
    d18e:	3b 41       	pop	r11		
    d190:	30 41       	ret			

0000d192 <op_display_off>:
    d192:	f2 f0 df ff 	and.b	#-33,	&0x0265	;#0xffdf
    d196:	65 02 
    d198:	30 41       	ret			

0000d19a <op_display_toggle>:
    d19a:	f2 e0 20 00 	xor.b	#32,	&0x0265	;#0x0020
    d19e:	65 02 
    d1a0:	30 41       	ret			

0000d1a2 <op_crc_clear_f1>:
    d1a2:	30 41       	ret			

0000d1a4 <op_crc_test_f1>:
    d1a4:	a2 b3 66 02 	bit	#2,	&0x0266	;r3 As==10
    d1a8:	02 24       	jz	$+6      	;abs 0xd1ae
    d1aa:	b2 d2 68 02 	bis	#8,	&0x0268	;r2 As==11
    d1ae:	30 41       	ret			

0000d1b0 <sim_load_segments_woodstock>:
    d1b0:	5e 42 65 02 	mov.b	&0x0265,r14	
    d1b4:	3e f0 20 00 	and	#32,	r14	;#0x0020
    d1b8:	16 24       	jz	$+46     	;abs 0xd1e6
    d1ba:	7e 40 0d 00 	mov.b	#13,	r14	;#0x000d
    d1be:	4e 8f       	sub.b	r15,	r14	
    d1c0:	4f 4e       	mov.b	r14,	r15	
    d1c2:	5e 4f 24 02 	mov.b	548(r15),r14	;0x0224(r15)
    d1c6:	2e b3       	bit	#2,	r14	;r3 As==10
    d1c8:	05 24       	jz	$+12     	;abs 0xd1d4
    d1ca:	ff 90 09 00 	cmp.b	#9,	534(r15);#0x0009, 0x0216(r15)
    d1ce:	16 02 
    d1d0:	0a 20       	jnz	$+22     	;abs 0xd1e6
    d1d2:	0b 3c       	jmp	$+24     	;abs 0xd1ea
    d1d4:	5f 4f 16 02 	mov.b	534(r15),r15	;0x0216(r15)
    d1d8:	5f 4f ca da 	mov.b	-9526(r15),r15	;0xdaca(r15)
    d1dc:	1e f3       	and	#1,	r14	;r3 As==01
    d1de:	07 24       	jz	$+16     	;abs 0xd1ee
    d1e0:	7f d0 80 ff 	bis.b	#-128,	r15	;#0xff80
    d1e4:	30 41       	ret			
    d1e6:	4f 43       	clr.b	r15		
    d1e8:	30 41       	ret			
    d1ea:	7f 40 10 00 	mov.b	#16,	r15	;#0x0010
    d1ee:	30 41       	ret			

0000d1f0 <sim_load_segments_spice>:
    d1f0:	5e 42 65 02 	mov.b	&0x0265,r14	
    d1f4:	3e f0 20 00 	and	#32,	r14	;#0x0020
    d1f8:	27 24       	jz	$+80     	;abs 0xd248
    d1fa:	7f 90 0b 00 	cmp.b	#11,	r15	;#0x000b
    d1fe:	24 2c       	jc	$+74     	;abs 0xd248
    d200:	4f 93       	tst.b	r15		
    d202:	05 20       	jnz	$+12     	;abs 0xd20e
    d204:	5f 42 30 02 	mov.b	&0x0230,r15	
    d208:	2f f2       	and	#4,	r15	;r2 As==10
    d20a:	20 20       	jnz	$+66     	;abs 0xd24c
    d20c:	30 41       	ret			
    d20e:	7e 40 0d 00 	mov.b	#13,	r14	;#0x000d
    d212:	4e 8f       	sub.b	r15,	r14	
    d214:	4f 4e       	mov.b	r14,	r15	
    d216:	5e 4f 24 02 	mov.b	548(r15),r14	;0x0224(r15)
    d21a:	7e 90 06 00 	cmp.b	#6,	r14	;#0x0006
    d21e:	05 20       	jnz	$+12     	;abs 0xd22a
    d220:	ff 90 09 00 	cmp.b	#9,	534(r15);#0x0009, 0x0216(r15)
    d224:	16 02 
    d226:	10 20       	jnz	$+34     	;abs 0xd248
    d228:	14 3c       	jmp	$+42     	;abs 0xd252
    d22a:	5f 4f 16 02 	mov.b	534(r15),r15	;0x0216(r15)
    d22e:	7f 90 0b 00 	cmp.b	#11,	r15	;#0x000b
    d232:	02 20       	jnz	$+6      	;abs 0xd238
    d234:	7f 40 10 00 	mov.b	#16,	r15	;#0x0010
    d238:	4f 4f       	mov.b	r15,	r15	
    d23a:	5f 4f ca da 	mov.b	-9526(r15),r15	;0xdaca(r15)
    d23e:	1e f3       	and	#1,	r14	;r3 As==01
    d240:	0a 24       	jz	$+22     	;abs 0xd256
    d242:	7f d0 80 ff 	bis.b	#-128,	r15	;#0xff80
    d246:	30 41       	ret			
    d248:	4f 43       	clr.b	r15		
    d24a:	30 41       	ret			
    d24c:	7f 40 10 00 	mov.b	#16,	r15	;#0x0010
    d250:	30 41       	ret			
    d252:	7f 40 10 00 	mov.b	#16,	r15	;#0x0010
    d256:	30 41       	ret			

0000d258 <woodstock_set_ext_flag.constprop.1>:
    d258:	4f 93       	tst.b	r15		
    d25a:	03 24       	jz	$+8      	;abs 0xd262
    d25c:	b2 d2 66 02 	bis	#8,	&0x0266	;r2 As==11
    d260:	30 41       	ret			
    d262:	b2 f0 f7 ff 	and	#-9,	&0x0266	;#0xfff7
    d266:	66 02 
    d268:	30 41       	ret			

0000d26a <reg_zero>:
    d26a:	05 3c       	jmp	$+12     	;abs 0xd276
    d26c:	0c 4f       	mov	r15,	r12	
    d26e:	0c 5e       	add	r14,	r12	
    d270:	cc 43 00 00 	mov.b	#0,	0(r12)	;r3 As==00, 0x0000(r12)
    d274:	1e 53       	inc	r14		
    d276:	0d 9e       	cmp	r14,	r13	
    d278:	f9 37       	jge	$-12     	;abs 0xd26c
    d27a:	30 41       	ret			

0000d27c <woodstock_clear_memory>:
    d27c:	0b 12       	push	r11		
    d27e:	0b 43       	clr	r11		
    d280:	0f 4b       	mov	r11,	r15	
    d282:	0f 5f       	rla	r15		
    d284:	0f 5f       	rla	r15		
    d286:	0f 5f       	rla	r15		
    d288:	0f 8b       	sub	r11,	r15	
    d28a:	3f 50 6a 00 	add	#106,	r15	;#0x006a
    d28e:	3d 40 06 00 	mov	#6,	r13	;#0x0006
    d292:	0e 43       	clr	r14		
    d294:	3f 50 16 02 	add	#534,	r15	;#0x0216
    d298:	b0 12 6a d2 	call	#0xd26a	
    d29c:	1b 53       	inc	r11		
    d29e:	3b 90 20 00 	cmp	#32,	r11	;#0x0020
    d2a2:	ee 23       	jnz	$-34     	;abs 0xd280
    d2a4:	3b 41       	pop	r11		
    d2a6:	30 41       	ret			

0000d2a8 <reg_copy>:
    d2a8:	0b 12       	push	r11		
    d2aa:	0a 12       	push	r10		
    d2ac:	07 3c       	jmp	$+16     	;abs 0xd2bc
    d2ae:	0a 4e       	mov	r14,	r10	
    d2b0:	0a 5d       	add	r13,	r10	
    d2b2:	0b 4f       	mov	r15,	r11	
    d2b4:	0b 5d       	add	r13,	r11	
    d2b6:	eb 4a 00 00 	mov.b	@r10,	0(r11)	;0x0000(r11)
    d2ba:	1d 53       	inc	r13		
    d2bc:	0c 9d       	cmp	r13,	r12	
    d2be:	f7 37       	jge	$-16     	;abs 0xd2ae
    d2c0:	3a 41       	pop	r10		
    d2c2:	3b 41       	pop	r11		
    d2c4:	30 41       	ret			

0000d2c6 <reg_exch>:
    d2c6:	0b 12       	push	r11		
    d2c8:	0a 12       	push	r10		
    d2ca:	09 12       	push	r9		
    d2cc:	0a 3c       	jmp	$+22     	;abs 0xd2e2
    d2ce:	0a 4f       	mov	r15,	r10	
    d2d0:	0a 5d       	add	r13,	r10	
    d2d2:	69 4a       	mov.b	@r10,	r9	
    d2d4:	0b 4e       	mov	r14,	r11	
    d2d6:	0b 5d       	add	r13,	r11	
    d2d8:	ea 4b 00 00 	mov.b	@r11,	0(r10)	;0x0000(r10)
    d2dc:	cb 49 00 00 	mov.b	r9,	0(r11)	;0x0000(r11)
    d2e0:	1d 53       	inc	r13		
    d2e2:	0c 9d       	cmp	r13,	r12	
    d2e4:	f4 37       	jge	$-22     	;abs 0xd2ce
    d2e6:	39 41       	pop	r9		
    d2e8:	3a 41       	pop	r10		
    d2ea:	3b 41       	pop	r11		
    d2ec:	30 41       	ret			

0000d2ee <reg_add>:
    d2ee:	0b 12       	push	r11		
    d2f0:	0a 12       	push	r10		
    d2f2:	09 12       	push	r9		
    d2f4:	08 12       	push	r8		
    d2f6:	07 12       	push	r7		
    d2f8:	06 12       	push	r6		
    d2fa:	57 41 10 00 	mov.b	16(r1),	r7	;0x0010(r1)
    d2fe:	59 41 12 00 	mov.b	18(r1),	r9	;0x0012(r1)
    d302:	46 47       	mov.b	r7,	r6	
    d304:	76 e3       	xor.b	#-1,	r6	;r3 As==11
    d306:	1f 3c       	jmp	$+64     	;abs 0xd346
    d308:	0d 93       	tst	r13		
    d30a:	04 24       	jz	$+10     	;abs 0xd314
    d30c:	0b 4d       	mov	r13,	r11	
    d30e:	0b 5c       	add	r12,	r11	
    d310:	68 4b       	mov.b	@r11,	r8	
    d312:	01 3c       	jmp	$+4      	;abs 0xd316
    d314:	08 43       	clr	r8		
    d316:	5a 42 65 02 	mov.b	&0x0265,r10	
    d31a:	0b 4e       	mov	r14,	r11	
    d31c:	0b 5c       	add	r12,	r11	
    d31e:	6b 4b       	mov.b	@r11,	r11	
    d320:	0b 58       	add	r8,	r11	
    d322:	18 43       	mov	#1,	r8	;r3 As==01
    d324:	47 ba       	bit.b	r10,	r7	
    d326:	01 20       	jnz	$+4      	;abs 0xd32a
    d328:	08 43       	clr	r8		
    d32a:	0b 58       	add	r8,	r11	
    d32c:	0b 99       	cmp	r9,	r11	
    d32e:	03 38       	jl	$+8      	;abs 0xd336
    d330:	0b 89       	sub	r9,	r11	
    d332:	4a d7       	bis.b	r7,	r10	
    d334:	01 3c       	jmp	$+4      	;abs 0xd338
    d336:	4a f6       	and.b	r6,	r10	
    d338:	c2 4a 65 02 	mov.b	r10,	&0x0265	
    d33c:	0a 4f       	mov	r15,	r10	
    d33e:	0a 5c       	add	r12,	r10	
    d340:	ca 4b 00 00 	mov.b	r11,	0(r10)	;0x0000(r10)
    d344:	1c 53       	inc	r12		
    d346:	81 9c 0e 00 	cmp	r12,	14(r1)	;0x000e(r1)
    d34a:	de 37       	jge	$-66     	;abs 0xd308
    d34c:	36 41       	pop	r6		
    d34e:	37 41       	pop	r7		
    d350:	38 41       	pop	r8		
    d352:	39 41       	pop	r9		
    d354:	3a 41       	pop	r10		
    d356:	3b 41       	pop	r11		
    d358:	30 41       	ret			

0000d35a <reg_sub>:
    d35a:	0b 12       	push	r11		
    d35c:	0a 12       	push	r10		
    d35e:	09 12       	push	r9		
    d360:	08 12       	push	r8		
    d362:	07 12       	push	r7		
    d364:	06 12       	push	r6		
    d366:	57 41 10 00 	mov.b	16(r1),	r7	;0x0010(r1)
    d36a:	46 47       	mov.b	r7,	r6	
    d36c:	76 e3       	xor.b	#-1,	r6	;r3 As==11
    d36e:	58 41 12 00 	mov.b	18(r1),	r8	;0x0012(r1)
    d372:	25 3c       	jmp	$+76     	;abs 0xd3be
    d374:	0e 93       	tst	r14		
    d376:	04 24       	jz	$+10     	;abs 0xd380
    d378:	0b 4e       	mov	r14,	r11	
    d37a:	0b 5c       	add	r12,	r11	
    d37c:	6b 4b       	mov.b	@r11,	r11	
    d37e:	01 3c       	jmp	$+4      	;abs 0xd382
    d380:	0b 43       	clr	r11		
    d382:	0d 93       	tst	r13		
    d384:	04 24       	jz	$+10     	;abs 0xd38e
    d386:	0a 4d       	mov	r13,	r10	
    d388:	0a 5c       	add	r12,	r10	
    d38a:	69 4a       	mov.b	@r10,	r9	
    d38c:	01 3c       	jmp	$+4      	;abs 0xd390
    d38e:	09 43       	clr	r9		
    d390:	5a 42 65 02 	mov.b	&0x0265,r10	
    d394:	0b 89       	sub	r9,	r11	
    d396:	19 43       	mov	#1,	r9	;r3 As==01
    d398:	47 ba       	bit.b	r10,	r7	
    d39a:	01 20       	jnz	$+4      	;abs 0xd39e
    d39c:	09 43       	clr	r9		
    d39e:	0b 89       	sub	r9,	r11	
    d3a0:	0b 93       	tst	r11		
    d3a2:	03 34       	jge	$+8      	;abs 0xd3aa
    d3a4:	0b 58       	add	r8,	r11	
    d3a6:	4a d7       	bis.b	r7,	r10	
    d3a8:	01 3c       	jmp	$+4      	;abs 0xd3ac
    d3aa:	4a f6       	and.b	r6,	r10	
    d3ac:	c2 4a 65 02 	mov.b	r10,	&0x0265	
    d3b0:	0f 93       	tst	r15		
    d3b2:	04 24       	jz	$+10     	;abs 0xd3bc
    d3b4:	0a 4f       	mov	r15,	r10	
    d3b6:	0a 5c       	add	r12,	r10	
    d3b8:	ca 4b 00 00 	mov.b	r11,	0(r10)	;0x0000(r10)
    d3bc:	1c 53       	inc	r12		
    d3be:	81 9c 0e 00 	cmp	r12,	14(r1)	;0x000e(r1)
    d3c2:	d8 37       	jge	$-78     	;abs 0xd374
    d3c4:	36 41       	pop	r6		
    d3c6:	37 41       	pop	r7		
    d3c8:	38 41       	pop	r8		
    d3ca:	39 41       	pop	r9		
    d3cc:	3a 41       	pop	r10		
    d3ce:	3b 41       	pop	r11		
    d3d0:	30 41       	ret			

0000d3d2 <reg_test_equal>:
    d3d2:	0b 12       	push	r11		
    d3d4:	0a 12       	push	r10		
    d3d6:	09 12       	push	r9		
    d3d8:	08 12       	push	r8		
    d3da:	07 12       	push	r7		
    d3dc:	5a 41 0c 00 	mov.b	12(r1),	r10	;0x000c(r1)
    d3e0:	c2 da 65 02 	bis.b	r10,	&0x0265	
    d3e4:	47 4a       	mov.b	r10,	r7	
    d3e6:	77 e3       	xor.b	#-1,	r7	;r3 As==11
    d3e8:	14 3c       	jmp	$+42     	;abs 0xd412
    d3ea:	0e 93       	tst	r14		
    d3ec:	04 24       	jz	$+10     	;abs 0xd3f6
    d3ee:	0b 4e       	mov	r14,	r11	
    d3f0:	0b 5d       	add	r13,	r11	
    d3f2:	6b 4b       	mov.b	@r11,	r11	
    d3f4:	01 3c       	jmp	$+4      	;abs 0xd3f8
    d3f6:	0b 43       	clr	r11		
    d3f8:	59 42 65 02 	mov.b	&0x0265,r9	
    d3fc:	4a b9       	bit.b	r9,	r10	
    d3fe:	08 24       	jz	$+18     	;abs 0xd410
    d400:	08 4f       	mov	r15,	r8	
    d402:	08 5d       	add	r13,	r8	
    d404:	68 48       	mov.b	@r8,	r8	
    d406:	08 9b       	cmp	r11,	r8	
    d408:	03 24       	jz	$+8      	;abs 0xd410
    d40a:	49 f7       	and.b	r7,	r9	
    d40c:	c2 49 65 02 	mov.b	r9,	&0x0265	
    d410:	1d 53       	inc	r13		
    d412:	0c 9d       	cmp	r13,	r12	
    d414:	ea 37       	jge	$-42     	;abs 0xd3ea
    d416:	37 41       	pop	r7		
    d418:	38 41       	pop	r8		
    d41a:	39 41       	pop	r9		
    d41c:	3a 41       	pop	r10		
    d41e:	3b 41       	pop	r11		
    d420:	30 41       	ret			

0000d422 <reg_test_nonequal>:
    d422:	0b 12       	push	r11		
    d424:	0a 12       	push	r10		
    d426:	09 12       	push	r9		
    d428:	59 41 08 00 	mov.b	8(r1),	r9	;0x0008(r1)
    d42c:	c2 c9 65 02 	bic.b	r9,	&0x0265	
    d430:	0f 3c       	jmp	$+32     	;abs 0xd450
    d432:	0e 93       	tst	r14		
    d434:	04 24       	jz	$+10     	;abs 0xd43e
    d436:	0b 4e       	mov	r14,	r11	
    d438:	0b 5d       	add	r13,	r11	
    d43a:	6b 4b       	mov.b	@r11,	r11	
    d43c:	01 3c       	jmp	$+4      	;abs 0xd440
    d43e:	0b 43       	clr	r11		
    d440:	0a 4f       	mov	r15,	r10	
    d442:	0a 5d       	add	r13,	r10	
    d444:	6a 4a       	mov.b	@r10,	r10	
    d446:	0a 9b       	cmp	r11,	r10	
    d448:	02 24       	jz	$+6      	;abs 0xd44e
    d44a:	c2 d9 65 02 	bis.b	r9,	&0x0265	
    d44e:	1d 53       	inc	r13		
    d450:	0c 9d       	cmp	r13,	r12	
    d452:	ef 37       	jge	$-32     	;abs 0xd432
    d454:	39 41       	pop	r9		
    d456:	3a 41       	pop	r10		
    d458:	3b 41       	pop	r11		
    d45a:	30 41       	ret			

0000d45c <reg_shift_right>:
    d45c:	0b 12       	push	r11		
    d45e:	0b 3c       	jmp	$+24     	;abs 0xd476
    d460:	0c 4f       	mov	r15,	r12	
    d462:	0c 5e       	add	r14,	r12	
    d464:	0e 9d       	cmp	r13,	r14	
    d466:	03 24       	jz	$+8      	;abs 0xd46e
    d468:	5b 4c 01 00 	mov.b	1(r12),	r11	;0x0001(r12)
    d46c:	01 3c       	jmp	$+4      	;abs 0xd470
    d46e:	4b 43       	clr.b	r11		
    d470:	cc 4b 00 00 	mov.b	r11,	0(r12)	;0x0000(r12)
    d474:	1e 53       	inc	r14		
    d476:	0d 9e       	cmp	r14,	r13	
    d478:	f3 37       	jge	$-24     	;abs 0xd460
    d47a:	3b 41       	pop	r11		
    d47c:	30 41       	ret			

0000d47e <reg_shift_left>:
    d47e:	0b 12       	push	r11		
    d480:	0b 3c       	jmp	$+24     	;abs 0xd498
    d482:	0c 4f       	mov	r15,	r12	
    d484:	0c 5d       	add	r13,	r12	
    d486:	0d 9e       	cmp	r14,	r13	
    d488:	03 24       	jz	$+8      	;abs 0xd490
    d48a:	5b 4c ff ff 	mov.b	-1(r12),r11	;0xffff(r12)
    d48e:	01 3c       	jmp	$+4      	;abs 0xd492
    d490:	4b 43       	clr.b	r11		
    d492:	cc 4b 00 00 	mov.b	r11,	0(r12)	;0x0000(r12)
    d496:	3d 53       	add	#-1,	r13	;r3 As==11
    d498:	0d 9e       	cmp	r14,	r13	
    d49a:	f3 37       	jge	$-24     	;abs 0xd482
    d49c:	3b 41       	pop	r11		
    d49e:	30 41       	ret			

0000d4a0 <flash_write>:
    d4a0:	0b 12       	push	r11		
    d4a2:	0a 12       	push	r10		
    d4a4:	09 12       	push	r9		
    d4a6:	4f 93       	tst.b	r15		
    d4a8:	03 20       	jnz	$+8      	;abs 0xd4b0
    d4aa:	3c 40 40 10 	mov	#4160,	r12	;#0x1040
    d4ae:	02 3c       	jmp	$+6      	;abs 0xd4b4
    d4b0:	3c 40 80 10 	mov	#4224,	r12	;#0x1080
    d4b4:	b2 40 42 a5 	mov	#-23230,&0x012a	;#0xa542
    d4b8:	2a 01 
    d4ba:	b2 40 02 a5 	mov	#-23294,&0x0128	;#0xa502
    d4be:	28 01 
    d4c0:	b2 40 00 a5 	mov	#-23296,&0x012c	;#0xa500
    d4c4:	2c 01 
    d4c6:	cc 43 00 00 	mov.b	#0,	0(r12)	;r3 As==00, 0x0000(r12)
    d4ca:	b2 40 40 a5 	mov	#-23232,&0x0128	;#0xa540
    d4ce:	28 01 
    d4d0:	0a 4c       	mov	r12,	r10	
    d4d2:	0b 4e       	mov	r14,	r11	
    d4d4:	03 3c       	jmp	$+8      	;abs 0xd4dc
    d4d6:	fa 4b 00 00 	mov.b	@r11+,	0(r10)	;0x0000(r10)
    d4da:	1a 53       	inc	r10		
    d4dc:	49 4b       	mov.b	r11,	r9	
    d4de:	49 8e       	sub.b	r14,	r9	
    d4e0:	49 9d       	cmp.b	r13,	r9	
    d4e2:	f9 2b       	jnc	$-12     	;abs 0xd4d6
    d4e4:	4d 4d       	mov.b	r13,	r13	
    d4e6:	0d 5c       	add	r12,	r13	
    d4e8:	dd 42 12 02 	mov.b	&0x0212,0(r13)	;0x0000(r13)
    d4ec:	00 00 
    d4ee:	4f 93       	tst.b	r15		
    d4f0:	0a 20       	jnz	$+22     	;abs 0xd506
    d4f2:	0f 43       	clr	r15		
    d4f4:	0e 4d       	mov	r13,	r14	
    d4f6:	0e 5f       	add	r15,	r14	
    d4f8:	de 4f 60 03 	mov.b	864(r15),1(r14)	;0x0360(r15), 0x0001(r14)
    d4fc:	01 00 
    d4fe:	1f 53       	inc	r15		
    d500:	3f 90 0c 00 	cmp	#12,	r15	;#0x000c
    d504:	f7 23       	jnz	$-16     	;abs 0xd4f4
    d506:	b2 40 00 a5 	mov	#-23296,&0x0128	;#0xa500
    d50a:	28 01 
    d50c:	b2 40 10 a5 	mov	#-23280,&0x012c	;#0xa510
    d510:	2c 01 
    d512:	39 41       	pop	r9		
    d514:	3a 41       	pop	r10		
    d516:	3b 41       	pop	r11		
    d518:	30 41       	ret			

0000d51a <char_at_digit>:
    d51a:	5f 92 78 02 	cmp.b	&0x0278,r15	
    d51e:	05 20       	jnz	$+12     	;abs 0xd52a
    d520:	1e 42 14 02 	mov	&0x0214,r14	
    d524:	3e b0 00 02 	bit	#512,	r14	;#0x0200
    d528:	1b 20       	jnz	$+56     	;abs 0xd560
    d52a:	5e 42 63 02 	mov.b	&0x0263,r14	
    d52e:	4f 9e       	cmp.b	r14,	r15	
    d530:	17 28       	jnc	$+48     	;abs 0xd560
    d532:	4f 8e       	sub.b	r14,	r15	
    d534:	5f 92 64 02 	cmp.b	&0x0264,r15	
    d538:	13 2c       	jc	$+40     	;abs 0xd560
    d53a:	4e 4f       	mov.b	r15,	r14	
    d53c:	1e 52 7a 02 	add	&0x027a,r14	
    d540:	6e 4e       	mov.b	@r14,	r14	
    d542:	7e 90 30 00 	cmp.b	#48,	r14	;#0x0030
    d546:	0e 28       	jnc	$+30     	;abs 0xd564
    d548:	4e 4e       	mov.b	r14,	r14	
    d54a:	3e 50 ca da 	add	#-9526,	r14	;#0xdaca
    d54e:	7f 90 41 00 	cmp.b	#65,	r15	;#0x0041
    d552:	03 28       	jnc	$+8      	;abs 0xd55a
    d554:	5f 4e b0 ff 	mov.b	-80(r14),r15	;0xffb0(r14)
    d558:	30 41       	ret			
    d55a:	5f 4e d0 ff 	mov.b	-48(r14),r15	;0xffd0(r14)
    d55e:	30 41       	ret			
    d560:	4f 43       	clr.b	r15		
    d562:	30 41       	ret			
    d564:	4f 43       	clr.b	r15		
    d566:	30 41       	ret			

0000d568 <show_msg>:
    d568:	82 4f 7a 02 	mov	r15,	&0x027a	
    d56c:	02 3c       	jmp	$+6      	;abs 0xd572
    d56e:	d2 53 64 02 	inc.b	&0x0264	
    d572:	7d 4f       	mov.b	@r15+,	r13	
    d574:	4d 93       	tst.b	r13		
    d576:	fb 23       	jnz	$-8      	;abs 0xd56e
    d578:	f2 40 0b 00 	mov.b	#11,	&0x0263	;#0x000b
    d57c:	63 02 
    d57e:	f2 d0 10 00 	bis.b	#16,	&0x0212	;#0x0010
    d582:	12 02 
    d584:	0e 3c       	jmp	$+30     	;abs 0xd5a2
    d586:	7d 90 06 00 	cmp.b	#6,	r13	;#0x0006
    d58a:	04 28       	jnc	$+10     	;abs 0xd594
    d58c:	4d 4f       	mov.b	r15,	r13	
    d58e:	7d 50 fa ff 	add.b	#-6,	r13	;#0xfffa
    d592:	03 3c       	jmp	$+8      	;abs 0xd59a
    d594:	7d 40 07 00 	mov.b	#7,	r13	;#0x0007
    d598:	4d 8f       	sub.b	r15,	r13	
    d59a:	c2 4d 0a 02 	mov.b	r13,	&0x020a	
    d59e:	32 d0 10 00 	bis	#16,	r2	;#0x0010
    d5a2:	5f 42 63 02 	mov.b	&0x0263,r15	
    d5a6:	4d 4f       	mov.b	r15,	r13	
    d5a8:	7d 53       	add.b	#-1,	r13	;r3 As==11
    d5aa:	c2 4d 63 02 	mov.b	r13,	&0x0263	
    d5ae:	4f 93       	tst.b	r15		
    d5b0:	ea 23       	jnz	$-42     	;abs 0xd586
    d5b2:	c2 43 63 02 	mov.b	#0,	&0x0263	;r3 As==00
    d5b6:	4e 93       	tst.b	r14		
    d5b8:	02 24       	jz	$+6      	;abs 0xd5be
    d5ba:	c2 4e 0a 02 	mov.b	r14,	&0x020a	
    d5be:	32 d0 10 00 	bis	#16,	r2	;#0x0010
    d5c2:	f2 f0 ef ff 	and.b	#-17,	&0x0212	;#0xffef
    d5c6:	12 02 
    d5c8:	30 41       	ret			

0000d5ca <hwtest_load_segments>:
    d5ca:	0b 12       	push	r11		
    d5cc:	7f 90 0c 00 	cmp.b	#12,	r15	;#0x000c
    d5d0:	04 2c       	jc	$+10     	;abs 0xd5da
    d5d2:	4f 4f       	mov.b	r15,	r15	
    d5d4:	0f 5f       	rla	r15		
    d5d6:	10 4f b2 da 	br	-9550(r15)	;0xdab2(r15)
    d5da:	7f 40 0f 00 	mov.b	#15,	r15	;#0x000f
    d5de:	64 3c       	jmp	$+202    	;abs 0xd6a8
    d5e0:	7f 40 20 00 	mov.b	#32,	r15	;#0x0020
    d5e4:	61 3c       	jmp	$+196    	;abs 0xd6a8
    d5e6:	5f 42 12 02 	mov.b	&0x0212,r15	
    d5ea:	2f f3       	and	#2,	r15	;r3 As==10
    d5ec:	4f 24       	jz	$+160    	;abs 0xd68c
    d5ee:	6f 43       	mov.b	#2,	r15	;r3 As==10
    d5f0:	5b 3c       	jmp	$+184    	;abs 0xd6a8
    d5f2:	5f 42 12 02 	mov.b	&0x0212,r15	
    d5f6:	1f f3       	and	#1,	r15	;r3 As==01
    d5f8:	46 24       	jz	$+142    	;abs 0xd686
    d5fa:	5f 42 12 02 	mov.b	&0x0212,r15	
    d5fe:	2f f3       	and	#2,	r15	;r3 As==10
    d600:	45 24       	jz	$+140    	;abs 0xd68c
    d602:	5f 43       	mov.b	#1,	r15	;r3 As==01
    d604:	51 3c       	jmp	$+164    	;abs 0xd6a8
    d606:	5f 42 12 02 	mov.b	&0x0212,r15	
    d60a:	3f f2       	and	#8,	r15	;r2 As==11
    d60c:	42 24       	jz	$+134    	;abs 0xd692
    d60e:	47 3c       	jmp	$+144    	;abs 0xd69e
    d610:	5f 42 12 02 	mov.b	&0x0212,r15	
    d614:	3f f2       	and	#8,	r15	;r2 As==11
    d616:	40 24       	jz	$+130    	;abs 0xd698
    d618:	7f 40 1c 00 	mov.b	#28,	r15	;#0x001c
    d61c:	45 3c       	jmp	$+140    	;abs 0xd6a8
    d61e:	5f 42 12 02 	mov.b	&0x0212,r15	
    d622:	3f f2       	and	#8,	r15	;r2 As==11
    d624:	3c 24       	jz	$+122    	;abs 0xd69e
    d626:	7f 40 1f 00 	mov.b	#31,	r15	;#0x001f
    d62a:	3e 3c       	jmp	$+126    	;abs 0xd6a8
    d62c:	5f 42 12 02 	mov.b	&0x0212,r15	
    d630:	3f f2       	and	#8,	r15	;r2 As==11
    d632:	38 24       	jz	$+114    	;abs 0xd6a4
    d634:	7f 40 27 00 	mov.b	#39,	r15	;#0x0027
    d638:	37 3c       	jmp	$+112    	;abs 0xd6a8
    d63a:	5f 42 11 02 	mov.b	&0x0211,r15	
    d63e:	7e 40 cd ff 	mov.b	#-51,	r14	;#0xffcd
    d642:	b0 12 fe d8 	call	#0xd8fe	
    d646:	8f 10       	swpb	r15		
    d648:	12 c3       	clrc			
    d64a:	4f 10       	rrc.b	r15		
    d64c:	12 c3       	clrc			
    d64e:	4f 10       	rrc.b	r15		
    d650:	12 c3       	clrc			
    d652:	4f 10       	rrc.b	r15		
    d654:	29 3c       	jmp	$+84     	;abs 0xd6a8
    d656:	5b 42 11 02 	mov.b	&0x0211,r11	
    d65a:	7e 40 cd ff 	mov.b	#-51,	r14	;#0xffcd
    d65e:	4f 4b       	mov.b	r11,	r15	
    d660:	b0 12 fe d8 	call	#0xd8fe	
    d664:	8f 10       	swpb	r15		
    d666:	12 c3       	clrc			
    d668:	4f 10       	rrc.b	r15		
    d66a:	12 c3       	clrc			
    d66c:	4f 10       	rrc.b	r15		
    d66e:	7f f0 fe ff 	and.b	#-2,	r15	;#0xfffe
    d672:	4e 4f       	mov.b	r15,	r14	
    d674:	4e 5e       	rla.b	r14		
    d676:	4e 5e       	rla.b	r14		
    d678:	4f 5e       	add.b	r14,	r15	
    d67a:	4b 8f       	sub.b	r15,	r11	
    d67c:	4f 4b       	mov.b	r11,	r15	
    d67e:	14 3c       	jmp	$+42     	;abs 0xd6a8
    d680:	7f 40 18 00 	mov.b	#24,	r15	;#0x0018
    d684:	11 3c       	jmp	$+36     	;abs 0xd6a8
    d686:	7f 40 05 00 	mov.b	#5,	r15	;#0x0005
    d68a:	0e 3c       	jmp	$+30     	;abs 0xd6a8
    d68c:	7f 40 03 00 	mov.b	#3,	r15	;#0x0003
    d690:	0b 3c       	jmp	$+24     	;abs 0xd6a8
    d692:	7f 40 16 00 	mov.b	#22,	r15	;#0x0016
    d696:	08 3c       	jmp	$+18     	;abs 0xd6a8
    d698:	7f 40 11 00 	mov.b	#17,	r15	;#0x0011
    d69c:	05 3c       	jmp	$+12     	;abs 0xd6a8
    d69e:	7f 40 23 00 	mov.b	#35,	r15	;#0x0023
    d6a2:	02 3c       	jmp	$+6      	;abs 0xd6a8
    d6a4:	7f 40 24 00 	mov.b	#36,	r15	;#0x0024
    d6a8:	4f 4f       	mov.b	r15,	r15	
    d6aa:	5f 4f ca da 	mov.b	-9526(r15),r15	;0xdaca(r15)
    d6ae:	3b 41       	pop	r11		
    d6b0:	30 41       	ret			

0000d6b2 <Timer0_A0_iSR>:
    d6b2:	0f 12       	push	r15		
    d6b4:	0e 12       	push	r14		
    d6b6:	0d 12       	push	r13		
    d6b8:	0c 12       	push	r12		
    d6ba:	0b 12       	push	r11		
    d6bc:	5f 42 21 00 	mov.b	&0x0021,r15	
    d6c0:	f2 43 21 00 	mov.b	#-1,	&0x0021	;r3 As==11
    d6c4:	f2 d0 c3 ff 	bis.b	#-61,	&0x0029	;#0xffc3
    d6c8:	29 00 
    d6ca:	7f 40 09 00 	mov.b	#9,	r15	;#0x0009
    d6ce:	7d 42       	mov.b	#8,	r13	;r2 As==11
    d6d0:	19 3c       	jmp	$+52     	;abs 0xd704
    d6d2:	5e 42 10 02 	mov.b	&0x0210,r14	
    d6d6:	1e f3       	and	#1,	r14	;r3 As==01
    d6d8:	04 24       	jz	$+10     	;abs 0xd6e2
    d6da:	f2 f0 fb ff 	and.b	#-5,	&0x0029	;#0xfffb
    d6de:	29 00 
    d6e0:	09 3c       	jmp	$+20     	;abs 0xd6f4
    d6e2:	f2 f0 fb ff 	and.b	#-5,	&0x0029	;#0xfffb
    d6e6:	29 00 
    d6e8:	3e 40 03 00 	mov	#3,	r14	;#0x0003
    d6ec:	1e 83       	dec	r14		
    d6ee:	fe 23       	jnz	$-2      	;abs 0xd6ec
    d6f0:	03 43       	nop			
    d6f2:	7d 53       	add.b	#-1,	r13	;r3 As==11
    d6f4:	e2 d2 29 00 	bis.b	#4,	&0x0029	;r2 As==10
    d6f8:	5e 42 10 02 	mov.b	&0x0210,r14	
    d6fc:	12 c3       	clrc			
    d6fe:	4e 10       	rrc.b	r14		
    d700:	c2 4e 10 02 	mov.b	r14,	&0x0210	
    d704:	7f 53       	add.b	#-1,	r15	;r3 As==11
    d706:	e5 23       	jnz	$-52     	;abs 0xd6d2
    d708:	5f 42 0f 02 	mov.b	&0x020f,r15	
    d70c:	7f 90 0c 00 	cmp.b	#12,	r15	;#0x000c
    d710:	73 20       	jnz	$+232    	;abs 0xd7f8
    d712:	5f 42 11 02 	mov.b	&0x0211,r15	
    d716:	4f 93       	tst.b	r15		
    d718:	27 24       	jz	$+80     	;abs 0xd768
    d71a:	5f 42 11 02 	mov.b	&0x0211,r15	
    d71e:	5e 42 29 00 	mov.b	&0x0029,r14	
    d722:	12 c3       	clrc			
    d724:	4f 10       	rrc.b	r15		
    d726:	12 c3       	clrc			
    d728:	4f 10       	rrc.b	r15		
    d72a:	4f 4f       	mov.b	r15,	r15	
    d72c:	5e cf 8a ff 	bic.b	-118(r15),r14	;0xff8a(r15)
    d730:	c2 4e 29 00 	mov.b	r14,	&0x0029	
    d734:	d2 cf 96 ff 	bic.b	-106(r15),&0x0021	;0xff96(r15)
    d738:	21 00 
    d73a:	5f 42 28 00 	mov.b	&0x0028,r15	
    d73e:	3f f0 38 00 	and	#56,	r15	;#0x0038
    d742:	3f 90 38 00 	cmp	#56,	r15	;#0x0038
    d746:	0a 20       	jnz	$+22     	;abs 0xd75c
    d748:	5f 42 11 02 	mov.b	&0x0211,r15	
    d74c:	7f 90 23 00 	cmp.b	#35,	r15	;#0x0023
    d750:	03 24       	jz	$+8      	;abs 0xd758
    d752:	f2 d0 20 00 	bis.b	#32,	&0x0212	;#0x0020
    d756:	12 02 
    d758:	c2 43 11 02 	mov.b	#0,	&0x0211	;r3 As==00
    d75c:	3f 40 8f 01 	mov	#399,	r15	;#0x018f
    d760:	1f 83       	dec	r15		
    d762:	fe 23       	jnz	$-2      	;abs 0xd760
    d764:	03 43       	nop			
    d766:	70 3c       	jmp	$+226    	;abs 0xd848
    d768:	3c 40 8a ff 	mov	#-118,	r12	;#0xff8a
    d76c:	3d 40 96 ff 	mov	#-106,	r13	;#0xff96
    d770:	4e 43       	clr.b	r14		
    d772:	7e 90 06 00 	cmp.b	#6,	r14	;#0x0006
    d776:	39 24       	jz	$+116    	;abs 0xd7ea
    d778:	e2 cc 29 00 	bic.b	@r12,	&0x0029	
    d77c:	e2 cd 21 00 	bic.b	@r13,	&0x0021	
    d780:	5f 42 28 00 	mov.b	&0x0028,r15	
    d784:	3f f0 38 00 	and	#56,	r15	;#0x0038
    d788:	3f 90 38 00 	cmp	#56,	r15	;#0x0038
    d78c:	2a 24       	jz	$+86     	;abs 0xd7e2
    d78e:	5f 42 28 00 	mov.b	&0x0028,r15	
    d792:	3f f0 10 00 	and	#16,	r15	;#0x0010
    d796:	05 20       	jnz	$+12     	;abs 0xd7a2
    d798:	4f 4e       	mov.b	r14,	r15	
    d79a:	4f 5f       	rla.b	r15		
    d79c:	4f 5f       	rla.b	r15		
    d79e:	6f 53       	incd.b	r15		
    d7a0:	13 3c       	jmp	$+40     	;abs 0xd7c8
    d7a2:	5f 42 28 00 	mov.b	&0x0028,r15	
    d7a6:	3f f2       	and	#8,	r15	;r2 As==11
    d7a8:	06 20       	jnz	$+14     	;abs 0xd7b6
    d7aa:	4f 4e       	mov.b	r14,	r15	
    d7ac:	4f 5f       	rla.b	r15		
    d7ae:	4f 5f       	rla.b	r15		
    d7b0:	7f 50 03 00 	add.b	#3,	r15	;#0x0003
    d7b4:	09 3c       	jmp	$+20     	;abs 0xd7c8
    d7b6:	5f 42 28 00 	mov.b	&0x0028,r15	
    d7ba:	3f f0 20 00 	and	#32,	r15	;#0x0020
    d7be:	06 20       	jnz	$+14     	;abs 0xd7cc
    d7c0:	4f 4e       	mov.b	r14,	r15	
    d7c2:	4f 5f       	rla.b	r15		
    d7c4:	4f 5f       	rla.b	r15		
    d7c6:	5f 53       	inc.b	r15		
    d7c8:	c2 4f 11 02 	mov.b	r15,	&0x0211	
    d7cc:	5f 42 11 02 	mov.b	&0x0211,r15	
    d7d0:	4f 93       	tst.b	r15		
    d7d2:	07 24       	jz	$+16     	;abs 0xd7e2
    d7d4:	f2 d0 40 00 	bis.b	#64,	&0x0212	;#0x0040
    d7d8:	12 02 
    d7da:	b1 c0 10 00 	bic	#16,	10(r1)	;#0x0010, 0x000a(r1)
    d7de:	0a 00 
    d7e0:	33 3c       	jmp	$+104    	;abs 0xd848
    d7e2:	e2 dc 29 00 	bis.b	@r12,	&0x0029	
    d7e6:	e2 dd 21 00 	bis.b	@r13,	&0x0021	
    d7ea:	5e 53       	inc.b	r14		
    d7ec:	1c 53       	inc	r12		
    d7ee:	1d 53       	inc	r13		
    d7f0:	7e 90 0c 00 	cmp.b	#12,	r14	;#0x000c
    d7f4:	be 23       	jnz	$-130    	;abs 0xd772
    d7f6:	28 3c       	jmp	$+82     	;abs 0xd848
    d7f8:	5f 42 65 02 	mov.b	&0x0265,r15	
    d7fc:	3f f0 20 00 	and	#32,	r15	;#0x0020
    d800:	05 20       	jnz	$+12     	;abs 0xd80c
    d802:	5f 42 12 02 	mov.b	&0x0212,r15	
    d806:	3f b0 14 00 	bit	#20,	r15	;#0x0014
    d80a:	12 24       	jz	$+38     	;abs 0xd830
    d80c:	5f 42 21 00 	mov.b	&0x0021,r15	
    d810:	5e 42 0f 02 	mov.b	&0x020f,r14	
    d814:	4e 4e       	mov.b	r14,	r14	
    d816:	5f ce 96 ff 	bic.b	-106(r14),r15	;0xff96(r14)
    d81a:	c2 4f 21 00 	mov.b	r15,	&0x0021	
    d81e:	5f 42 29 00 	mov.b	&0x0029,r15	
    d822:	5e 42 0f 02 	mov.b	&0x020f,r14	
    d826:	4e 4e       	mov.b	r14,	r14	
    d828:	5f ce 8a ff 	bic.b	-118(r14),r15	;0xff8a(r14)
    d82c:	c2 4f 29 00 	mov.b	r15,	&0x0029	
    d830:	1b 42 72 01 	mov	&0x0172,r11	
    d834:	7d 50 06 00 	add.b	#6,	r13	;#0x0006
    d838:	3e 40 d0 02 	mov	#720,	r14	;#0x02d0
    d83c:	4f 4d       	mov.b	r13,	r15	
    d83e:	b0 12 06 d9 	call	#0xd906	
    d842:	0f 5b       	add	r11,	r15	
    d844:	82 4f 72 01 	mov	r15,	&0x0172	
    d848:	5f 42 0f 02 	mov.b	&0x020f,r15	
    d84c:	7f 90 0c 00 	cmp.b	#12,	r15	;#0x000c
    d850:	06 28       	jnc	$+14     	;abs 0xd85e
    d852:	c2 43 0f 02 	mov.b	#0,	&0x020f	;r3 As==00
    d856:	b2 50 58 02 	add	#600,	&0x0172	;#0x0258
    d85a:	72 01 
    d85c:	12 3c       	jmp	$+38     	;abs 0xd882
    d85e:	d2 53 0f 02 	inc.b	&0x020f	
    d862:	5f 42 0f 02 	mov.b	&0x020f,r15	
    d866:	7f 90 0c 00 	cmp.b	#12,	r15	;#0x000c
    d86a:	0b 20       	jnz	$+24     	;abs 0xd882
    d86c:	5f 42 0e 02 	mov.b	&0x020e,r15	
    d870:	4e 4f       	mov.b	r15,	r14	
    d872:	5e 53       	inc.b	r14		
    d874:	c2 4e 0e 02 	mov.b	r14,	&0x020e	
    d878:	3f f0 03 00 	and	#3,	r15	;#0x0003
    d87c:	02 24       	jz	$+6      	;abs 0xd882
    d87e:	c2 43 0f 02 	mov.b	#0,	&0x020f	;r3 As==00
    d882:	5f 42 0f 02 	mov.b	&0x020f,r15	
    d886:	7f 90 0c 00 	cmp.b	#12,	r15	;#0x000c
    d88a:	03 20       	jnz	$+8      	;abs 0xd892
    d88c:	c2 43 10 02 	mov.b	#0,	&0x0210	;r3 As==00
    d890:	19 3c       	jmp	$+52     	;abs 0xd8c4
    d892:	5f 42 12 02 	mov.b	&0x0212,r15	
    d896:	3f f0 10 00 	and	#16,	r15	;#0x0010
    d89a:	05 24       	jz	$+12     	;abs 0xd8a6
    d89c:	5f 42 0f 02 	mov.b	&0x020f,r15	
    d8a0:	b0 12 1a d5 	call	#0xd51a	
    d8a4:	0d 3c       	jmp	$+28     	;abs 0xd8c0
    d8a6:	5f 42 12 02 	mov.b	&0x0212,r15	
    d8aa:	2f f2       	and	#4,	r15	;r2 As==10
    d8ac:	05 24       	jz	$+12     	;abs 0xd8b8
    d8ae:	5f 42 0f 02 	mov.b	&0x020f,r15	
    d8b2:	b0 12 ca d5 	call	#0xd5ca	
    d8b6:	04 3c       	jmp	$+10     	;abs 0xd8c0
    d8b8:	5f 42 0f 02 	mov.b	&0x020f,r15	
    d8bc:	92 12 0c 02 	call	&0x020c	
    d8c0:	c2 4f 10 02 	mov.b	r15,	&0x0210	
    d8c4:	92 53 14 02 	inc	&0x0214	
    d8c8:	1f 42 14 02 	mov	&0x0214,r15	
    d8cc:	3e 40 32 00 	mov	#50,	r14	;#0x0032
    d8d0:	b0 12 38 d9 	call	#0xd938	
    d8d4:	0f 93       	tst	r15		
    d8d6:	0d 20       	jnz	$+28     	;abs 0xd8f2
    d8d8:	5f 42 0a 02 	mov.b	&0x020a,r15	
    d8dc:	4f 93       	tst.b	r15		
    d8de:	09 24       	jz	$+20     	;abs 0xd8f2
    d8e0:	f2 53 0a 02 	add.b	#-1,	&0x020a	;r3 As==11
    d8e4:	5f 42 0a 02 	mov.b	&0x020a,r15	
    d8e8:	4f 93       	tst.b	r15		
    d8ea:	03 20       	jnz	$+8      	;abs 0xd8f2
    d8ec:	b1 c0 10 00 	bic	#16,	10(r1)	;#0x0010, 0x000a(r1)
    d8f0:	0a 00 
    d8f2:	3b 41       	pop	r11		
    d8f4:	3c 41       	pop	r12		
    d8f6:	3d 41       	pop	r13		
    d8f8:	3e 41       	pop	r14		
    d8fa:	3f 41       	pop	r15		
    d8fc:	00 13       	reti			

0000d8fe <__umulqihi3>:
    d8fe:	4e 4e       	mov.b	r14,	r14	
    d900:	4f 4f       	mov.b	r15,	r15	
    d902:	30 40 06 d9 	br	#0xd906	

0000d906 <__mulhi3>:
    d906:	0d 4f       	mov	r15,	r13	
    d908:	0f 43       	clr	r15		
    d90a:	0e 93       	tst	r14		
    d90c:	07 24       	jz	$+16     	;abs 0xd91c
    d90e:	12 c3       	clrc			
    d910:	0d 10       	rrc	r13		
    d912:	01 28       	jnc	$+4      	;abs 0xd916
    d914:	0f 5e       	add	r14,	r15	
    d916:	0e 5e       	rla	r14		
    d918:	0d 93       	tst	r13		
    d91a:	f7 23       	jnz	$-16     	;abs 0xd90a
    d91c:	30 41       	ret			

0000d91e <__udivhi3>:
    d91e:	7c 40 10 00 	mov.b	#16,	r12	;#0x0010
    d922:	0d 4e       	mov	r14,	r13	
    d924:	0e 43       	clr	r14		
    d926:	0f 5f       	rla	r15		
    d928:	0e 6e       	rlc	r14		
    d92a:	0e 9d       	cmp	r13,	r14	
    d92c:	02 28       	jnc	$+6      	;abs 0xd932
    d92e:	0e 8d       	sub	r13,	r14	
    d930:	1f d3       	bis	#1,	r15	;r3 As==01
    d932:	1c 83       	dec	r12		
    d934:	f8 23       	jnz	$-14     	;abs 0xd926
    d936:	30 41       	ret			

0000d938 <__umodhi3>:
    d938:	b0 12 1e d9 	call	#0xd91e	
    d93c:	0f 4e       	mov	r14,	r15	
    d93e:	30 41       	ret			

0000d940 <memcpy>:
    d940:	0b 12       	push	r11		
    d942:	0a 12       	push	r10		
    d944:	09 12       	push	r9		
    d946:	08 12       	push	r8		
    d948:	07 12       	push	r7		
    d94a:	0d 93       	tst	r13		
    d94c:	70 24       	jz	$+226    	;abs 0xda2e
    d94e:	0f 9e       	cmp	r14,	r15	
    d950:	6e 24       	jz	$+222    	;abs 0xda2e
    d952:	34 2c       	jc	$+106    	;abs 0xd9bc
    d954:	0c 4e       	mov	r14,	r12	
    d956:	0c df       	bis	r15,	r12	
    d958:	1c f3       	and	#1,	r12	;r3 As==01
    d95a:	1b 24       	jz	$+56     	;abs 0xd992
    d95c:	0c 4e       	mov	r14,	r12	
    d95e:	0c ef       	xor	r15,	r12	
    d960:	1c f3       	and	#1,	r12	;r3 As==01
    d962:	07 20       	jnz	$+16     	;abs 0xd972
    d964:	2d 93       	cmp	#2,	r13	;r3 As==10
    d966:	07 28       	jnc	$+16     	;abs 0xd976
    d968:	0b 4e       	mov	r14,	r11	
    d96a:	1b f3       	and	#1,	r11	;r3 As==01
    d96c:	2c 43       	mov	#2,	r12	;r3 As==10
    d96e:	0c 8b       	sub	r11,	r12	
    d970:	03 3c       	jmp	$+8      	;abs 0xd978
    d972:	0c 4d       	mov	r13,	r12	
    d974:	01 3c       	jmp	$+4      	;abs 0xd978
    d976:	1c 43       	mov	#1,	r12	;r3 As==01
    d978:	0d 8c       	sub	r12,	r13	
    d97a:	0a 4c       	mov	r12,	r10	
    d97c:	09 4e       	mov	r14,	r9	
    d97e:	0b 4f       	mov	r15,	r11	
    d980:	fb 49 00 00 	mov.b	@r9+,	0(r11)	;0x0000(r11)
    d984:	1b 53       	inc	r11		
    d986:	3a 53       	add	#-1,	r10	;r3 As==11
    d988:	fb 23       	jnz	$-8      	;abs 0xd980
    d98a:	0a 4f       	mov	r15,	r10	
    d98c:	0a 5c       	add	r12,	r10	
    d98e:	0e 5c       	add	r12,	r14	
    d990:	01 3c       	jmp	$+4      	;abs 0xd994
    d992:	0a 4f       	mov	r15,	r10	
    d994:	0b 4d       	mov	r13,	r11	
    d996:	12 c3       	clrc			
    d998:	0b 10       	rrc	r11		
    d99a:	0b 24       	jz	$+24     	;abs 0xd9b2
    d99c:	09 4b       	mov	r11,	r9	
    d99e:	08 4e       	mov	r14,	r8	
    d9a0:	0c 4a       	mov	r10,	r12	
    d9a2:	bc 48 00 00 	mov	@r8+,	0(r12)	;0x0000(r12)
    d9a6:	2c 53       	incd	r12		
    d9a8:	39 53       	add	#-1,	r9	;r3 As==11
    d9aa:	fb 23       	jnz	$-8      	;abs 0xd9a2
    d9ac:	0b 5b       	rla	r11		
    d9ae:	0e 5b       	add	r11,	r14	
    d9b0:	0a 5b       	add	r11,	r10	
    d9b2:	1d f3       	and	#1,	r13	;r3 As==01
    d9b4:	3c 24       	jz	$+122    	;abs 0xda2e
    d9b6:	ea 4e 00 00 	mov.b	@r14,	0(r10)	;0x0000(r10)
    d9ba:	39 3c       	jmp	$+116    	;abs 0xda2e
    d9bc:	0e 5d       	add	r13,	r14	
    d9be:	0c 4f       	mov	r15,	r12	
    d9c0:	0c 5d       	add	r13,	r12	
    d9c2:	0b 4c       	mov	r12,	r11	
    d9c4:	0b de       	bis	r14,	r11	
    d9c6:	1b f3       	and	#1,	r11	;r3 As==01
    d9c8:	1b 24       	jz	$+56     	;abs 0xda00
    d9ca:	0b 4c       	mov	r12,	r11	
    d9cc:	0b ee       	xor	r14,	r11	
    d9ce:	1b f3       	and	#1,	r11	;r3 As==01
    d9d0:	06 20       	jnz	$+14     	;abs 0xd9de
    d9d2:	3d 90 03 00 	cmp	#3,	r13	;#0x0003
    d9d6:	03 28       	jnc	$+8      	;abs 0xd9de
    d9d8:	0b 4e       	mov	r14,	r11	
    d9da:	1b f3       	and	#1,	r11	;r3 As==01
    d9dc:	01 3c       	jmp	$+4      	;abs 0xd9e0
    d9de:	0b 4d       	mov	r13,	r11	
    d9e0:	0d 8b       	sub	r11,	r13	
    d9e2:	09 4e       	mov	r14,	r9	
    d9e4:	0a 4c       	mov	r12,	r10	
    d9e6:	08 4b       	mov	r11,	r8	
    d9e8:	08 8c       	sub	r12,	r8	
    d9ea:	3a 53       	add	#-1,	r10	;r3 As==11
    d9ec:	39 53       	add	#-1,	r9	;r3 As==11
    d9ee:	ea 49 00 00 	mov.b	@r9,	0(r10)	;0x0000(r10)
    d9f2:	07 4a       	mov	r10,	r7	
    d9f4:	07 58       	add	r8,	r7	
    d9f6:	f9 23       	jnz	$-12     	;abs 0xd9ea
    d9f8:	3b e3       	inv	r11		
    d9fa:	1b 53       	inc	r11		
    d9fc:	0c 5b       	add	r11,	r12	
    d9fe:	0e 5b       	add	r11,	r14	
    da00:	0b 4d       	mov	r13,	r11	
    da02:	12 c3       	clrc			
    da04:	0b 10       	rrc	r11		
    da06:	0e 24       	jz	$+30     	;abs 0xda24
    da08:	0a 4b       	mov	r11,	r10	
    da0a:	08 4e       	mov	r14,	r8	
    da0c:	09 4c       	mov	r12,	r9	
    da0e:	28 83       	decd	r8		
    da10:	29 83       	decd	r9		
    da12:	a9 48 00 00 	mov	@r8,	0(r9)	;0x0000(r9)
    da16:	3a 53       	add	#-1,	r10	;r3 As==11
    da18:	fa 23       	jnz	$-10     	;abs 0xda0e
    da1a:	0a 8b       	sub	r11,	r10	
    da1c:	0b 4a       	mov	r10,	r11	
    da1e:	0b 5b       	rla	r11		
    da20:	0e 5b       	add	r11,	r14	
    da22:	0c 5b       	add	r11,	r12	
    da24:	1d f3       	and	#1,	r13	;r3 As==01
    da26:	03 24       	jz	$+8      	;abs 0xda2e
    da28:	dc 4e ff ff 	mov.b	-1(r14),-1(r12)	;0xffff(r14), 0xffff(r12)
    da2c:	ff ff 
    da2e:	37 41       	pop	r7		
    da30:	38 41       	pop	r8		
    da32:	39 41       	pop	r9		
    da34:	3a 41       	pop	r10		
    da36:	3b 41       	pop	r11		
    da38:	30 41       	ret			

0000da3a <_unexpected_>:
    da3a:	00 13       	reti			

Disassembly of section .rodata:

0000da3c <seg_map-0x8e>:
    da3c:	48 50       	add.b	r0,	r8	
    da3e:	33 33       	jn	$-408    	;abs 0xd8a6
    da40:	43 20       	jnz	$+136    	;abs 0xdac8
    da42:	52 4f 4d 00 	mov.b	77(r15),r2	;0x004d(r15)
    da46:	48 50       	add.b	r0,	r8	
    da48:	32 35       	jge	$+614    	;abs 0xdcae
    da4a:	43 20       	jnz	$+136    	;abs 0xdad2
    da4c:	52 4f 4d 00 	mov.b	77(r15),r2	;0x004d(r15)
    da50:	48 50       	add.b	r0,	r8	
    da52:	32 31       	jn	$+614    	;abs 0xdcb8
    da54:	20 52       	add	#4,	r0	;r2 As==10
    da56:	4f 4d       	mov.b	r13,	r15	
    da58:	00 4e       	br	r14		
    da5a:	50 32       	jn	$-862    	;abs 0xd6fc
    da5c:	35 20       	jnz	$+108    	;abs 0xdac8
    da5e:	56 45 52 20 	mov.b	8274(r5),r6	;0x2052(r5)
    da62:	32 00       	.word	0x0032;	????	
    da64:	62 c6       	bic.b	@r6,	r2	
    da66:	4c c6       	bic.b	r6,	r12	
    da68:	98 c6 72 c6 	bic	-14734(r6),-14724(r8);0xc672(r6), 0xc67c(r8)
    da6c:	7c c6 
    da6e:	86 c6 8e c6 	bic	r6,	-14706(r6);0xc68e(r6)
    da72:	be c6 cc c6 	bic	@r6+,	-14644(r14);0xc6cc(r14)
    da76:	da c6 ec c6 	bic.b	-14612(r6),-14592(r10);0xc6ec(r6), 0xc700(r10)
    da7a:	00 c7 
    da7c:	12 c7 24 c7 	bic	-14556(r7),r2	;0xc724(r7)
    da80:	38 c7       	bic	@r7+,	r8	
    da82:	4c c7       	bic.b	r7,	r12	
    da84:	5a c7 86 c7 	bic.b	-14458(r7),r10	;0xc786(r7)
    da88:	b2 c7 dc c7 	bic	@r7+,	&0xc7dc	
    da8c:	08 c8       	bic	r8,	r8	
    da8e:	38 c8       	bic	@r8+,	r8	
    da90:	46 c8       	bic.b	r8,	r6	
    da92:	76 c8       	bic.b	@r8+,	r6	
    da94:	a2 c8 ce c8 	bic	@r8,	&0xc8ce	
    da98:	fe c8 2c c9 	bic.b	@r8+,	-14036(r14);0xc92c(r14)
    da9c:	54 c9 82 c9 	bic.b	-13950(r9),r4	;0xc982(r9)
    daa0:	98 c9 ae c9 	bic	-13906(r9),-13860(r8);0xc9ae(r9), 0xc9dc(r8)
    daa4:	dc c9 
    daa6:	0a ca       	bic	r10,	r10	
    daa8:	20 ca       	bic	@r10,	r0	
    daaa:	36 ca       	bic	@r10+,	r6	
    daac:	60 ca       	bic.b	@r10,	r0	
    daae:	6c ca       	bic.b	@r10,	r12	
    dab0:	78 ca       	bic.b	@r10+,	r8	
    dab2:	80 d6 e0 d5 	bis	r6,	-10784(r0);PC rel. 0xb094
    dab6:	e6 d5 f2 d5 	bis.b	@r5,	-10766(r6);0xd5f2(r6)
    daba:	da d5 06 d6 	bis.b	-10746(r5),-10736(r10);0xd606(r5), 0xd610(r10)
    dabe:	10 d6 
    dac0:	1e d6 2c d6 	bis	-10708(r6),r14	;0xd62c(r6)
    dac4:	da d5 3a d6 	bis.b	-10694(r5),-10666(r10);0xd63a(r5), 0xd656(r10)
    dac8:	56 d6 

0000daca <seg_map>:
    daca:	6f 44       	mov.b	@r4,	r15	
    dacc:	3d 5d       	add	@r13+,	r13	
    dace:	56 5b 7b 4c 	add.b	19579(r11),r6	;0x4c7b(r11)
    dad2:	7f 5f       	add.b	@r15+,	r15	
    dad4:	30 3a       	jl	$-926    	;abs 0xd736
    dad6:	71 3e       	jmp	$-796    	;abs 0xd7ba
    dad8:	3b 00       	.word	0x003b;	????	
    dada:	76 7e       	subc.b	@r14+,	r6	
    dadc:	73 31       	jn	$+744    	;abs 0xddc4
    dade:	75 3b       	jl	$-276    	;abs 0xd9ca
    dae0:	3a 6b       	addc	@r11+,	r10	
    dae2:	72 22       	jnz	$-794    	;abs 0xd7c8
    dae4:	45 13       	.word	0x1345;	????	
    dae6:	23 68       	.word	0x6823;	????	Illegal as 2-op instr
    dae8:	70 71       	subc.b	@r1+,	r0	
    daea:	3e 5e       	add	@r14+,	r14	
    daec:	30 5b       	add	@r11+,	r0	
    daee:	33 61       	.word	0x6133;	????	Illegal as 2-op instr
    daf0:	63 07       	.word	0x0763;	????	
    daf2:	76 57       	add.b	@r7+,	r6	
    daf4:	3d 3b       	jl	$-388    	;abs 0xd970
    daf6:	0e 5d       	add	r13,	r14	
    daf8:	52 01       	.word	0x0152;	????	
    dafa:	04 01       	.word	0x0104;	????	

0000dafb <CSWTCH.265>:
    dafb:	01 00       	.word	0x0001;	????	
    dafd:	04 0a       	.word	0x0a04;	????	
    daff:	0a 0a       	.word	0x0a0a;	????	
    db01:	0a 0a       	.word	0x0a0a;	????	
    db03:	0a 0a       	.word	0x0a0a;	????	
    db05:	0a 0a       	.word	0x0a0a;	????	
    db07:	0a 0a       	.word	0x0a0a;	????	
    db09:	07 0a       	.word	0x0a07;	????	
    db0b:	0a 0a       	.word	0x0a0a;	????	
    db0d:	0a 0a       	.word	0x0a0a;	????	
    db0f:	0a 0a       	.word	0x0a0a;	????	
    db11:	08 0a       	.word	0x0a08;	????	
    db13:	0a 0a       	.word	0x0a0a;	????	
    db15:	0a 0a       	.word	0x0a0a;	????	
    db17:	03 0a       	.word	0x0a03;	????	
    db19:	06 0a       	.word	0x0a06;	????	
    db1b:	0a 0a       	.word	0x0a0a;	????	
    db1d:	09 0a       	.word	0x0a09;	????	
    db1f:	02 0a       	.word	0x0a02;	????	
    db21:	05 00       	.word	0x0005;	????	

0000db22 <key_map_21>:
    db22:	00 74       	subc	r4,	r0	
    db24:	94 a4 00 b4 	dadd	-19456(r4),-11196(r4);0xb400(r4), 0xd444(r4)
    db28:	44 d4 
    db2a:	00 73       	sbc	r0		
    db2c:	93 a3       	dadd	#1,	#1	;r3 As==01, r3 As==01
    db2e:	00 b3       	bit	#0,	r0	;r3 As==00
    db30:	43 d4       	.word	0xd443;	????	Illegal as 2-op instr
    db32:	00 b2       	bit	r2,	r0	
    db34:	42 d2       	bis.b	r2,	r2	
    db36:	00 00       	.word	0x0000;	????	
    db38:	64 63       	addc.b	#2,	r4	;r3 As==10
    db3a:	00 00       	.word	0x0000;	????	
    db3c:	00 00       	.word	0x0000;	????	
    db3e:	00 d1       	bis	r1,	r0	
    db40:	41 62       	addc.b	r2,	r1	
    db42:	00 b1       	bit	r1,	r0	
    db44:	b0 00       	.word	0x00b0;	????	
    db46:	00 71       	subc	r1,	r0	
    db48:	91 a1 00 d0 	dadd	-12288(r1),24896(r1);0xd000(r1), 0x6140(r1)
    db4c:	40 61 
    db4e:	00 72       	subc	r2,	r0	
    db50:	92 a2 6e 6e 	dadd	&0x6e6e,&0x42f2	
    db54:	f2 42 

0000db52 <rom_21>:
    db52:	6e 6e       	addc.b	@r14,	r14	
    db54:	f2 42 46 23 	mov.b	#8,	&0x2346	;r2 As==11
    db58:	12 32       	jn	$-986    	;abs 0xd77e
    db5a:	e7 dd 03 46 	bis.b	@r13,	17923(r7);0x4603(r7)
    db5e:	0e 49       	mov	r9,	r14	
    db60:	e2 17       	.word	0x17e2;	????	
    db62:	14 83       	dec	r4		
    db64:	92 d2 2d 2e 	bis	&0x2e2d,&0x01bc	
    db68:	bc 01 
    db6a:	e9 f3 8f 71 	and.b	#2,	29071(r9);r3 As==10, 0x718f(r9)
    db6e:	9f 71 1f e9 	subc	-5857(r1),9961(r15);0xe91f(r1), 0x26e9(r15)
    db72:	e9 26 
    db74:	2b ba       	bit	@r10,	r11	
    db76:	09 42       	mov	r2,	r9	
    db78:	a3 be       	bit	@r14,	#1	;r3 As==01
    db7a:	27 1f       	.word	0x1f27;	????	
    db7c:	e7 29       	jnc	$+976    	;abs 0xdf4c
    db7e:	01 18       	.word	0x1801;	????	
    db80:	44 26       	jz	$-886    	;abs 0xd80a
    db82:	e6 a6 a6 c6 	dadd.b	@r6,	-14682(r6);0xc6a6(r6)
    db86:	a6 26       	jz	$-690    	;abs 0xd8d4
    db88:	0d 12       	push	r13		
    db8a:	5d 95 1b f5 	cmp.b	-2789(r5),r13	;0xf51b(r5)
    db8e:	6d cc       	bic.b	@r12,	r13	
    db90:	13 5b       	.word	0x5b13;	????	Illegal as 2-op instr
    db92:	27 10       	rrc	@r7		
    db94:	b2 21       	jnz	$+870    	;abs 0xdefa
    db96:	46 7f       	subc.b	r15,	r6	
    db98:	cc 04       	.word	0x04cc;	????	
    db9a:	1e 06       	.word	0x061e;	????	
    db9c:	6c ee       	xor.b	@r14,	r12	
    db9e:	6c 6c       	addc.b	@r12,	r12	
    dba0:	16 84 53 83 	sub	-31917(r4),r6	;0x8353(r4)
    dba4:	d2 28       	jnc	$+422    	;abs 0xdd4a
    dba6:	cc 13       	.word	0x13cc;	????	
    dba8:	8f d0 2b 93 	bis	r0,	-27861(r15);0x932b(r15)
    dbac:	d1 03       	.word	0x03d1;	????	
    dbae:	13 53       	inc	#0		;r3 As==00
    dbb0:	57 77 f4 40 	subc.b	16628(r7),r7	;0x40f4(r7)
    dbb4:	e5 37       	jge	$-52     	;abs 0xdb80
    dbb6:	fe 44 8f 68 	mov.b	@r4+,	26767(r14);0x688f(r14)
    dbba:	9c 71 74 9b 	subc	-25740(r1),25625(r12);0x9b74(r1), 0x6419(r12)
    dbbe:	19 64 
    dbc0:	64 26       	jz	$-822    	;abs 0xd88a
    dbc2:	2e 99       	cmp	@r9,	r14	
    dbc4:	23 c2       	.word	0xc223;	????	Illegal as 2-op instr
    dbc6:	d5 39       	jl	$+940    	;abs 0xdf72
    dbc8:	07 27       	jz	$-496    	;abs 0xd9d8
    dbca:	e3 f3       	and.b	#2,	#1	;r3 As==10, r3 As==01
    dbcc:	39 1e       	.word	0x1e39;	????	
    dbce:	62 39       	jl	$+710    	;abs 0xde94
    dbd0:	21 64       	addc	@r4,	r1	
    dbd2:	93 7d 86 7f 	subc	32646(r13),#1	;0x7f86(r13), r3 As==01
    dbd6:	6b 80       	sub.b	@r0,	r11	
    dbd8:	06 29       	jnc	$+526    	;abs 0xdde6
    dbda:	55 90 6c ef 	cmp.b	-4244(r0),r5	;PC rel. 0xcb48
    dbde:	6b 15       	.word	0x156b;	????	
    dbe0:	24 64       	addc	@r4,	r4	
    dbe2:	1b 84 93 f3 	sub	-3181(r4),r11	;0xf393(r4)
    dbe6:	39 24       	jz	$+116    	;abs 0xdc5a
    dbe8:	13 95       	.word	0x9513;	????	Illegal as 2-op instr
    dbea:	26 11       	rra	@r6		
    dbec:	f2 06       	.word	0x06f2;	????	
    dbee:	90 7b 0e 91 	subc	-28402(r11),28163(r0);0x910e(r11), PC rel. 0x49f5
    dbf2:	03 6e 
    dbf4:	ed 6b a2 03 	addc.b	@r11,	930(r13);0x03a2(r13)
    dbf8:	e2 7f 64 93 	subc.b	@r15,	&0x9364	
    dbfc:	a8 01       	.word	0x01a8;	????	
    dbfe:	d5 0f       	.word	0x0fd5;	????	
    dc00:	1f 86 12 12 	sub	4626(r6),r15	;0x1212(r6)
    dc04:	d1 07       	.word	0x07d1;	????	
    dc06:	cc 13       	.word	0x13cc;	????	
    dc08:	23 ba       	.word	0xba23;	????	Illegal as 2-op instr
    dc0a:	2e a3       	dadd	#2,	r14	;r3 As==10
    dc0c:	9a 23       	jnz	$-202    	;abs 0xdb42
    dc0e:	e9 5d af 64 	add.b	@r13,	25775(r9);0x64af(r9)
    dc12:	7b b0 2f 7f 	bit.b	#32559,	r11	;#0x7f2f
    dc16:	9b d8 34 64 	bis	25652(r8),12773(r11);0x6434(r8), 0x31e5(r11)
    dc1a:	e5 31 
    dc1c:	75 c4       	bic.b	@r4+,	r5	
    dc1e:	01 44       	mov	r4,	r1	
    dc20:	91 c2 84 f5 	bic	&0xf584,-10919(r1);0xd559(r1)
    dc24:	59 d5 
    dc26:	6f e7       	xor.b	@r7,	r15	
    dc28:	3c 1f       	.word	0x1f3c;	????	
    dc2a:	20 a8       	dadd	@r8,	r0	
    dc2c:	20 1e       	.word	0x1e20;	????	
    dc2e:	dd 38       	jl	$+444    	;abs 0xddea
    dc30:	44 78       	subc.b	r8,	r4	
    dc32:	28 1f       	.word	0x1f28;	????	
    dc34:	b1 05       	.word	0x05b1;	????	
    dc36:	78 be       	bit.b	@r14+,	r8	
    dc38:	77 18       	.word	0x1877;	????	
    dc3a:	00 1f       	.word	0x1f00;	????	
    dc3c:	71 71       	subc.b	@r1+,	r1	
    dc3e:	09 10       	rrc	r9		
    dc40:	68 68       	addc.b	@r8,	r8	
    dc42:	10 84 ac d3 	sub	-11348(r4),r0	;0xd3ac(r4)
    dc46:	2c 22       	jnz	$-934    	;abs 0xd8a0
    dc48:	f3 2f       	jc	$-24     	;abs 0xdc30
    dc4a:	64 bb       	bit.b	@r11,	r4	
    dc4c:	3e f5       	and	@r5+,	r14	
    dc4e:	3d fc       	and	@r12+,	r13	
    dc50:	f7 3f       	jmp	$-16     	;abs 0xdc40
    dc52:	32 cf       	bic	@r15+,	r2	
    dc54:	00 04       	.word	0x0400;	????	
    dc56:	08 61       	addc	r1,	r8	
    dc58:	33 d3       	.word	0xd333;	????	Illegal as 2-op instr
    dc5a:	d7 e4 67 c5 	xor.b	-15001(r4),9388(r7);0xc567(r4), 0x24ac(r7)
    dc5e:	ac 24 
    dc60:	38 d5       	bis	@r5+,	r8	
    dc62:	5d 92 9b 91 	cmp.b	&0x919b,r13	
    dc66:	5f 84 d5 65 	sub.b	26069(r4),r15	;0x65d5(r4)
    dc6a:	e1 84 82 b2 	sub.b	@r4,	-19838(r1);0xb282(r1)
    dc6e:	26 84       	sub	@r4,	r6	
    dc70:	77 66       	addc.b	@r6+,	r7	
    dc72:	06 68       	addc	r8,	r6	
    dc74:	bd 70 62 dc 	subc	#-9118,	-9358(r13);#0xdc62, 0xdb72(r13)
    dc78:	72 db 
    dc7a:	e8 c5 7f 0e 	bic.b	@r5,	3711(r8);0x0e7f(r8)
    dc7e:	6a 6a       	addc.b	@r10,	r10	
    dc80:	7a 7a       	subc.b	@r10+,	r10	
    dc82:	c3 4c       	mov.b	r12,	#1	;r3 As==01
    dc84:	26 25       	jz	$+590    	;abs 0xded2
    dc86:	bd 4d 26 3d 	mov	@r13+,	15654(r13);0x3d26(r13)
    dc8a:	c3 ee       	xor.b	r14,	#1	;r3 As==01
    dc8c:	f6 6b b6 ee 	addc.b	@r11+,	-4426(r6);0xeeb6(r6)
    dc90:	38 08       	.word	0x0838;	????	
    dc92:	a6 f8 fb 0f 	and	@r8,	4091(r6);0x0ffb(r6)
    dc96:	d7 57 d3 71 	add.b	29139(r7),6867(r7);0x71d3(r7), 0x1ad3(r7)
    dc9a:	d3 1a 
    dc9c:	b2 7f 5a 6c 	subc	@r15+,	&0x6c5a	
    dca0:	46 84       	sub.b	r4,	r6	
    dca2:	38 46       	mov	@r6+,	r8	
    dca4:	4f 76       	subc.b	r6,	r15	
    dca6:	86 56 36 96 	add	r6,	-27082(r6);0x9636(r6)
    dcaa:	86 16       	.word	0x1686;	????	
    dcac:	66 36       	jge	$-818    	;abs 0xd97a
    dcae:	56 7f 84 1a 	subc.b	6788(r15),r6	;0x1a84(r15)
    dcb2:	9b 68 68 a0 	addc	-24472(r8),-21264(r11);0xa068(r8), 0xacf0(r11)
    dcb6:	f0 ac 
    dcb8:	2a d7       	bis	@r7,	r10	
    dcba:	66 e8       	xor.b	@r8,	r6	
    dcbc:	42 9b       	cmp.b	r11,	r2	
    dcbe:	41 99       	cmp.b	r9,	r1	
    dcc0:	42 84       	sub.b	r4,	r2	
    dcc2:	68 68       	addc.b	@r8,	r8	
    dcc4:	68 d8       	bis.b	@r8,	r8	
    dcc6:	f0 db 67 71 	bis.b	@r11+,	29031(r0);PC rel. 0x4e2f
    dcca:	bc 5e 41 62 	add	@r14+,	25153(r12);0x6241(r12)
    dcce:	72 a2       	dadd.b	#8,	r2	;r2 As==11
    dcd0:	d5 60 bd 66 	addc.b	26301(r0),-9089(r5);PC rel. 0x438f, 0xdc7f(r5)
    dcd4:	7f dc 
    dcd6:	e8 62 da 1a 	addc.b	#4,	6874(r8);r2 As==10, 0x1ada(r8)
    dcda:	da 82 2a 92 	sub.b	&0x922a,-11630(r10);0xd292(r10)
    dcde:	92 d2 
    dce0:	6f e8       	xor.b	@r8,	r15	
    dce2:	c0 08       	.word	0x08c0;	????	
    dce4:	13 84       	.word	0x8413;	????	Illegal as 2-op instr
    dce6:	7f f0 b9 3f 	and.b	#16313,	r15	;#0x3fb9
    dcea:	51 5e 5e 21 	add.b	8542(r14),r1	;0x215e(r14)
    dcee:	0d 06       	.word	0x060d;	????	
    dcf0:	42 aa       	dadd.b	r10,	r2	
    dcf2:	68 68       	addc.b	@r8,	r8	
    dcf4:	68 70       	subc.b	@r0,	r8	
    dcf6:	f0 66 81 d5 	addc.b	@r6+,	-10879(r0);PC rel. 0xb279
    dcfa:	92 3f       	jmp	$-218    	;abs 0xdc20
    dcfc:	52 9b d7 01 	cmp.b	471(r11),r2	;0x01d7(r11)
    dd00:	02 9b       	cmp	r11,	r2	
    dd02:	08 06       	.word	0x0608;	????	
    dd04:	a1 05       	.word	0x05a1;	????	
    dd06:	d5 7d 06 7f 	subc.b	32518(r13),-32408(r5);0x7f06(r13), 0x8168(r5)
    dd0a:	68 81 
    dd0c:	dc 67 d3 50 	addc.b	20691(r7),26231(r12);0x50d3(r7), 0x6677(r12)
    dd10:	77 66 
    dd12:	b2 62 06 62 	addc	#8,	&0x6206	;r2 As==11
    dd16:	26 a2       	dadd	#4,	r6	;r2 As==10
    dd18:	db e8 47 72 	xor.b	29255(r8),-32084(r11);0x7247(r8), 0x82ac(r11)
    dd1c:	ac 82 
    dd1e:	b2 72 db 9b 	subc	#8,	&0x9bdb	;r2 As==11
    dd22:	ac 16       	.word	0x16ac;	????	
    dd24:	08 28       	jnc	$+18     	;abs 0xdd36
    dd26:	d5 3c       	jmp	$+428    	;abs 0xded2
    dd28:	b2 04       	.word	0x04b2;	????	
    dd2a:	68 84       	sub.b	@r4,	r8	
    dd2c:	2e 28       	jnc	$+94     	;abs 0xdd8a
    dd2e:	8b 28       	jnc	$+280    	;abs 0xde46
    dd30:	7f 38       	jl	$+256    	;abs 0xde30
    dd32:	a8 38       	jl	$+338    	;abs 0xde84
    dd34:	64 09       	.word	0x0964;	????	
    dd36:	18 df 82 84 	bis	-31614(r15),r8	;0x8482(r15)
    dd3a:	ba 7b 9b 7a 	subc	@r11+,	31387(r10);0x7a9b(r10)
    dd3e:	9a 4b 7b 84 	mov	-31621(r11),31191(r10);0x847b(r11), 0x79d7(r10)
    dd42:	d7 79 
    dd44:	42 2e       	jc	$-890    	;abs 0xd9ca
    dd46:	52 84 1a a1 	sub.b	-24294(r4),r2	;0xa11a(r4)
    dd4a:	d7 67 61 81 	addc.b	-32415(r7),-27689(r7);0x8161(r7), 0x93d7(r7)
    dd4e:	d7 93 
    dd50:	06 e5       	xor	r5,	r6	
    dd52:	e8 ee 9c e8 	xor.b	@r14,	-5988(r8);0xe89c(r8)
    dd56:	7f 7c       	subc.b	@r12+,	r15	
    dd58:	1e fb 90 05 	and	1424(r11),r14	;0x0590(r11)
    dd5c:	11 4c 7b 2f 	mov	12155(r12),r1	;0x2f7b(r12)
    dd60:	af 3f       	jmp	$-160    	;abs 0xdcc0
    dd62:	38 df       	bis	@r15+,	r8	
    dd64:	37 d8       	bis	@r8+,	r7	
    dd66:	6f 37       	jge	$-288    	;abs 0xdc46
    dd68:	80 4f 37 64 	mov	r15,	25655(r0);PC rel. 0x41a1
    dd6c:	37 f0 37 73 	and	#29495,	r7	;#0x7337
    dd70:	26 8e       	sub	@r14,	r6	
    dd72:	b2 88 8e 16 	sub	@r8+,	&0x168e	
    dd76:	64 76       	subc.b	@r6,	r4	
    dd78:	5b 89 26 bc 	sub.b	-17370(r9),r11	;0xbc26(r9)
    dd7c:	8b ad 7b 4f 	dadd	r13,	20347(r11);0x4f7b(r11)
    dd80:	be a5 b6 67 	dadd	@r5+,	26550(r14);0x67b6(r14)
    dd84:	66 73       	subc.b	#2,	r6	;r3 As==10
    dd86:	dd 9a 38 ee 	cmp.b	-4552(r10),15166(r13);0xee38(r10), 0x3b3e(r13)
    dd8a:	3e 3b 
    dd8c:	4e 9c       	cmp.b	r12,	r14	
    dd8e:	3a 26       	jz	$-906    	;abs 0xda04
    dd90:	77 26       	jz	$-784    	;abs 0xda80
    dd92:	af 26       	jz	$-672    	;abs 0xdaf2
    dd94:	1e 2d       	jc	$+574    	;abs 0xdfd2
    dd96:	5a a0 7a ee 	dadd.b	-4486(r0),r10	;PC rel. 0xcc12
    dd9a:	7b 47       	mov.b	@r7+,	r11	
    dd9c:	a9 72 dc 72 	subc	#4,	29404(r9);r2 As==10, 0x72dc(r9)
    dda0:	41 f0       	and.b	r0,	r1	
    dda2:	4f 36       	jge	$-864    	;abs 0xda42
    dda4:	64 6f       	addc.b	@r15,	r4	
    dda6:	36 80 df 36 	sub	#14047,	r6	;#0x36df
    ddaa:	d8 3f       	jmp	$-78     	;abs 0xdd5c
    ddac:	36 36       	jge	$-914    	;abs 0xda1a
    ddae:	36 bf       	bit	@r15+,	r6	
    ddb0:	01 af       	dadd	r15,	r1	
    ddb2:	3e 26       	jz	$-898    	;abs 0xda30
    ddb4:	66 94       	cmp.b	@r4,	r6	
    ddb6:	df 36       	jge	$-576    	;abs 0xdb76
    ddb8:	16 06       	.word	0x0616;	????	
    ddba:	16 76 96 86 	subc	-31082(r6),r6	;0x8696(r6)
    ddbe:	06 56       	rla	r6		
    ddc0:	56 b9 a2 d6 	bit.b	-10590(r9),r6	;0xd6a2(r9)
    ddc4:	2e 46       	mov	@r6,	r14	
    ddc6:	7f 26       	jz	$-768    	;abs 0xdac6
    ddc8:	36 06       	.word	0x0636;	????	
    ddca:	26 56       	add	@r6,	r6	
    ddcc:	84 14       	.word	0x1484;	????	
    ddce:	6c ff       	and.b	@r15,	r12	
    ddd0:	71 06       	.word	0x0671;	????	
    ddd2:	2f 36       	jge	$-928    	;abs 0xda32
    ddd4:	36 06       	.word	0x0636;	????	
    ddd6:	86 56 06 99 	add	r6,	-26362(r6);0x9906(r6)
    ddda:	a2 96 36 d6 	cmp	@r6,	&0xd636	
    ddde:	fb 68 1e 9c 	addc.b	@r8+,	-25570(r11);0x9c1e(r11)
    dde2:	8c e9 26 77 	xor	r9,	30502(r12);0x7726(r12)
    dde6:	26 94       	cmp	@r4,	r6	
    dde8:	8e 16       	.word	0x168e;	????	
    ddea:	68 c5       	bic.b	@r5,	r8	
    ddec:	18 87 a8 6b 	sub	27560(r7),r8	;0x6ba8(r7)
    ddf0:	d2 be 87 9b 	bit.b	-25721(r14),&0x764f	;0x9b87(r14)
    ddf4:	4f 76 
    ddf6:	9b 9e ee 41 	cmp	16878(r14),-17373(r11);0x41ee(r14), 0xbc23(r11)
    ddfa:	23 bc 
    ddfc:	ab 16       	.word	0x16ab;	????	
    ddfe:	86 ae ee 3e 	dadd	r14,	16110(r6);0x3eee(r6)
    de02:	46 9d       	cmp.b	r13,	r6	
    de04:	87 ae 46 7d 	dadd	r14,	32070(r7);0x7d46(r7)
    de08:	bb 66 5b ad 	addc	@r6+,	-21157(r11);0xad5b(r11)
    de0c:	fe fe 84 4e 	and.b	@r14+,	20100(r14);0x4e84(r14)
    de10:	98 bd ee 74 	bit	29934(r13),-20581(r8);0x74ee(r13), 0xaf9b(r8)
    de14:	9b af 
    de16:	7b 04       	.word	0x047b;	????	
    de18:	7f 0e       	.word	0x0e7f;	????	
    de1a:	d0 b3 76 9b 	bit.b	#1,	-25738(r0);r3 As==01, PC rel. 0x7992
    de1e:	d6 b2 46 1b 	bit.b	&0x1b46,-11186(r6);0xd44e(r6)
    de22:	4e d4 
    de24:	b0 25       	jz	$+866    	;abs 0xe186
    de26:	2e 0e       	.word	0x0e2e;	????	
    de28:	7f 84       	sub.b	@r4+,	r15	
    de2a:	ef 81 82 4c 	sub.b	@r1,	19586(r15);0x4c82(r15)
    de2e:	9f 63 8c e1 	addc	#1,	-7796(r15);r3 As==01, 0xe18c(r15)
    de32:	a4 0e       	.word	0x0ea4;	????	
    de34:	15 06       	.word	0x0615;	????	
    de36:	2b af       	dadd	@r15,	r11	
    de38:	dd bb 85 0b 	bit.b	2949(r11),-27343(r13);0x0b85(r11), 0x9531(r13)
    de3c:	31 95 
    de3e:	7a 39       	jl	$+758    	;abs 0xe134
    de40:	25 38       	jl	$+76     	;abs 0xde8c
    de42:	66 96       	cmp.b	@r6,	r6	
    de44:	36 16       	.word	0x1636;	????	
    de46:	46 76       	subc.b	r6,	r6	
    de48:	16 6b 6d a6 	addc	-22931(r11),r6	;0xa66d(r11)
    de4c:	e9 94 fa 04 	cmp.b	@r4,	1274(r9);0x04fa(r9)
    de50:	4e 84       	sub.b	r4,	r14	
    de52:	16 2e       	jc	$-978    	;abs 0xda80
    de54:	4c 2e       	jc	$-870    	;abs 0xdaee
    de56:	4c a7       	dadd.b	r7,	r12	
    de58:	c2 26       	jz	$-634    	;abs 0xdbde
    de5a:	67 c5       	bic.b	@r5,	r7	
    de5c:	bc c3 41 44 	bic	#-1,	17473(r12);r3 As==11, 0x4441(r12)
    de60:	db ec da 27 	xor.b	10202(r12),19537(r11);0x27da(r12), 0x4c51(r11)
    de64:	51 4c 
    de66:	db d7 47 06 	bis.b	1607(r7),7528(r11);0x0647(r7), 0x1d68(r11)
    de6a:	68 1d 
    de6c:	25 9b       	cmp	@r11,	r5	
    de6e:	f1 ba c6 e9 	bit.b	@r10+,	-5690(r1);0xe9c6(r1)
    de72:	7b 1f       	.word	0x1f7b;	????	
    de74:	ee f6 ec 3e 	and.b	@r6,	16108(r14);0x3eec(r14)
    de78:	5b 06       	.word	0x065b;	????	
    de7a:	68 18       	.word	0x1868;	????	
    de7c:	64 4f       	mov.b	@r15,	r4	
    de7e:	dc 08       	.word	0x08dc;	????	
    de80:	ec 26       	jz	$-550    	;abs 0xdc5a
    de82:	b8 cc a6 2e 	bic	@r12+,	11942(r8);0x2ea6(r8)
    de86:	33 c4       	.word	0xc433;	????	Illegal as 2-op instr
    de88:	28 76       	subc	@r6,	r8	
    de8a:	f7 3e       	jmp	$-528    	;abs 0xdc7a
    de8c:	3c 7c       	subc	@r12+,	r12	
    de8e:	86 3b       	jl	$-242    	;abs 0xdd9c
    de90:	4e 28       	jnc	$+158    	;abs 0xdf2e
    de92:	28 78       	subc	@r8,	r8	
    de94:	e6 41 56 76 	mov.b	@r1,	30294(r6);0x7656(r6)
    de98:	64 f9       	and.b	@r9,	r4	
    de9a:	bb d0 40 33 	bis	#13120,	29222(r11);#0x3340, 0x7226(r11)
    de9e:	26 72 
    dea0:	26 84       	sub	@r4,	r6	
    dea2:	18 3e       	jmp	$-974    	;abs 0xdad4
    dea4:	1f df f1 94 	bis	-27407(r15),r15	;0x94f1(r15)
    dea8:	54 7c 11 61 	subc.b	24849(r12),r4	;0x6111(r12)
    deac:	16 1e       	.word	0x1e16;	????	
    deae:	e1 55 4c ee 	add.b	@r5,	-4532(r1);0xee4c(r1)
    deb2:	21 16       	.word	0x1621;	????	
    deb4:	71 ec       	xor.b	@r12+,	r1	
    deb6:	6c 6c       	addc.b	@r12,	r12	
    deb8:	25 46       	mov	@r6,	r5	
    deba:	0b ef       	xor	r15,	r11	
    debc:	ef 98 4c 26 	cmp.b	@r8,	9804(r15);0x264c(r15)
    dec0:	1f 3f       	jmp	$-448    	;abs 0xdd00
    dec2:	bf 36       	jge	$-640    	;abs 0xdc42
    dec4:	3f 36       	jge	$-896    	;abs 0xdb44
    dec6:	5f 86 6f 36 	sub.b	13935(r6),r15	;0x366f(r6)
    deca:	f8 36       	jge	$-526    	;abs 0xdcbc
    decc:	50 76 36 36 	subc.b	13878(r6),r0	;0x3636(r6)
    ded0:	c4 50 5e a5 	add.b	r0,	-23202(r4);0xa55e(r4)
    ded4:	e2 47 e3 5e 	mov.b	@r7,	&0x5ee3	
    ded8:	26 2c       	jc	$+78     	;abs 0xdf26
    deda:	26 ac       	dadd	@r12,	r6	
    dedc:	29 50       	add	@r0,	r9	
    dede:	5e 26       	jz	$-834    	;abs 0xdb9c
    dee0:	35 e6       	xor	@r6+,	r5	
    dee2:	26 db       	bis	@r11,	r6	
    dee4:	46 98       	cmp.b	r8,	r6	
    dee6:	7b d7       	bis.b	@r7+,	r11	
    dee8:	e6 da 75 57 	bis.b	@r10,	22389(r6);0x5775(r6)
    deec:	18 35       	jge	$+562    	;abs 0xe11e
    deee:	e8 db 50 5e 	bis.b	@r11,	24144(r8);0x5e50(r8)
    def2:	da 50 5e 5e 	add.b	24158(r0),16478(r10);PC rel. 0x3d52, 0x405e(r10)
    def6:	5e 40 
    def8:	50 6f 37 f8 	addc.b	-1993(r15),r0	;0xf837(r15)
    defc:	3f 38       	jl	$+128    	;abs 0xdf7c
    defe:	5f 86 bf 37 	sub.b	14271(r6),r15	;0x37bf(r6)
    df02:	1f 37       	jge	$-448    	;abs 0xdd42
    df04:	37 16       	.word	0x1637;	????	
    df06:	fe af 56 d4 	dadd.b	@r15+,	-11178(r14);0xd456(r14)
    df0a:	9a 9a 03 e4 	cmp	-7165(r10),-4140(r10);0xe403(r10), 0xefd4(r10)
    df0e:	d4 ef 
    df10:	28 cd       	bic	@r13,	r8	
    df12:	f0 ac 16 86 	dadd.b	@r12+,	-31210(r0);PC rel. 0x652a
    df16:	28 f1       	and	@r1,	r8	
    df18:	f1 9c c5 61 	cmp.b	@r12+,	25029(r1);0x61c5(r1)
    df1c:	81 39       	jl	$+772    	;abs 0xe220
    df1e:	36 94       	cmp	@r4+,	r6	
    df20:	c7 21       	jnz	$+912    	;abs 0xe2b0
    df22:	4c b4       	bit.b	r4,	r12	
    df24:	c0 76 21 ec 	subc.b	r6,	-5087(r0);PC rel. 0xcb47
    df28:	f1 9c 3c cc 	cmp.b	@r12+,	-13252(r1);0xcc3c(r1)
    df2c:	18 18       	.word	0x1818;	????	
    df2e:	4b df       	bis.b	r15,	r11	
    df30:	98 7c bb ca 	subc	-13637(r12),803(r8)	;0xcabb(r12), 0x0323(r8)
    df34:	23 03 
    df36:	d8 f9 ee fe 	and.b	-274(r9),17211(r8);0xfeee(r9), 0x433b(r8)
    df3a:	3b 43 
    df3c:	7f 47       	mov.b	@r7+,	r15	
    df3e:	62 72       	subc.b	#4,	r2	;r2 As==10
    df40:	84 78 87 ef 	subc	r8,	-4217(r4);0xef87(r4)
    df44:	4f 77       	subc.b	r7,	r15	
    df46:	64 bb       	bit.b	@r11,	r4	
    df48:	fc 33       	jn	$-6      	;abs 0xdf42
    df4a:	bf 86 66 56 	sub	@r6+,	22118(r15);0x5666(r15)
    df4e:	26 46       	mov	@r6,	r6	
    df50:	96 84 0a 02 	sub	522(r4),1673(r6);0x020a(r4), 0x0689(r6)
    df54:	89 06 

0000df52 <rom_21_ex>:
    df52:	0a 02       	.word	0x020a;	????	
    df54:	89 06       	.word	0x0689;	????	
    df56:	a4 b8 85 88 	bit	@r8,	-30587(r4);0x8885(r4)
    df5a:	aa 6b 12 9e 	addc	@r11,	-25070(r10);0x9e12(r10)
    df5e:	00 28       	jnc	$+2      	;abs 0xdf60
    df60:	93 e7 0c 92 	xor	-28148(r7),#1	;0x920c(r7), r3 As==01
    df64:	aa 2a       	jnc	$-682    	;abs 0xdcba
    df66:	a6 89 ba 82 	sub	@r9,	-32070(r6);0x82ba(r6)
    df6a:	05 81       	sub	r1,	r5	
    df6c:	0b 83       	sub	#0,	r11	;r3 As==00
    df6e:	2a a6       	dadd	@r6,	r10	
    df70:	04 23       	jnz	$-502    	;abs 0xdd7a
    df72:	3e ae       	dadd	@r14+,	r14	
    df74:	ae 02       	.word	0x02ae;	????	
    df76:	42 0c       	.word	0x0c42;	????	
    df78:	c2 12       	.word	0x12c2;	????	
    df7a:	ae 0b       	.word	0x0bae;	????	
    df7c:	b8 46 c3 a9 	mov	@r6+,	-22077(r8);0xa9c3(r8)
    df80:	ab 0d       	.word	0x0dab;	????	
    df82:	3a 0a       	.word	0x0a3a;	????	
    df84:	e0 22       	jnz	$-574    	;abs 0xdd46
    df86:	38 20       	jnz	$+114    	;abs 0xdff8
    df88:	ea 96 e2 37 	cmp.b	@r6,	14306(r10);0x37e2(r10)
    df8c:	a0 aa 22 02 	dadd	@r10,	546(r0)	;PC rel. 0xe1b0
    df90:	00 82       	sub	r2,	r0	
    df92:	20 40       	br	@r0		
    df94:	c8 0a       	.word	0x0ac8;	????	
    df96:	33 c0       	.word	0xc033;	????	Illegal as 2-op instr
    df98:	00 c2       	bic	r2,	r0	
    df9a:	ea 44 8d aa 	mov.b	@r4,	-21875(r10);0xaa8d(r10)
    df9e:	ae ae a2 32 	dadd	@r14,	12962(r14);0x32a2(r14)
    dfa2:	ff 1c       	.word	0x1cff;	????	
    dfa4:	34 2e       	jc	$-918    	;abs 0xdc0e
    dfa6:	08 00       	.word	0x0008;	????	
    dfa8:	00 40       	br	r0		
    dfaa:	eb 19       	.word	0x19eb;	????	
    dfac:	c7 2a       	jnc	$-624    	;abs 0xdd3c
    dfae:	ea 35       	jge	$+982    	;abs 0xe384
    dfb0:	0e a0       	dadd	r0,	r14	
    dfb2:	4e 51       	add.b	r1,	r14	
    dfb4:	91 4a 33 74 	mov	29747(r10),-13271(r1);0x7433(r10), 0xcc29(r1)
    dfb8:	29 cc 
    dfba:	ea 0d       	.word	0x0dea;	????	
    dfbc:	c7 c0 cc 28 	bic.b	r0,	10444(r7);0x28cc(r7)
    dfc0:	d2 c5 30 52 	bic.b	21040(r5),&0xd02c	;0x5230(r5)
    dfc4:	2c d0 
    dfc6:	0f cc       	bic	r12,	r15	
    dfc8:	22 82       	sub	#4,	r2	;r2 As==10
    dfca:	0a 0c       	.word	0x0c0a;	????	
    dfcc:	ae 2e       	jc	$-674    	;abs 0xdd2a
    dfce:	88 10       	swpb	r8		
    dfd0:	08 a4       	dadd	r4,	r8	
    dfd2:	eb 68 ae 13 	addc.b	@r8,	5038(r11);0x13ae(r11)
    dfd6:	51 14       	.word	0x1451;	????	
    dfd8:	55 a5 ae 08 	dadd.b	2222(r5),r5	;0x08ae(r5)
    dfdc:	8a 12       	call	r10		
    dfde:	72 8d       	sub.b	@r13+,	r2	
    dfe0:	ae ab ab ae 	dadd	@r11,	-20821(r14);0xaeab(r14)
    dfe4:	7e 55       	add.b	@r5+,	r14	
    dfe6:	14 45 51 21 	mov	8529(r5),r4	;0x2151(r5)
    dfea:	ca 00       	.word	0x00ca;	????	
    dfec:	00 00       	.word	0x0000;	????	
    dfee:	ae 00       	.word	0x00ae;	????	
    dff0:	b0 ea 00 00 	xor	@r10+,	0(r0)	;PC rel. 0xdff2
    dff4:	c3 a9       	dadd.b	r9,	#1	;r3 As==01
    dff6:	ab ba 06 28 	bit	@r10,	10246(r11);0x2806(r11)
    dffa:	ae ae aa aa 	dadd	@r14,	-21846(r14);0xaaaa(r14)
    dffe:	0a 38       	jl	$+22     	;abs 0xe014
    e000:	ac e8 82 8a 	xor	@r8,	-30078(r12);0x8a82(r12)
    e004:	ae a2 8a 0a 	dadd	#4,	2698(r14);r2 As==10, 0x0a8a(r14)
    e008:	cc e8 aa 68 	xor.b	r8,	26794(r12);0x68aa(r12)
    e00c:	a8 2a       	jnc	$-686    	;abs 0xdd5e
    e00e:	00 c0       	bic	r0,	r0	
    e010:	ae 2b       	jnc	$-162    	;abs 0xdf6e
    e012:	56 81 60 58 	sub.b	22624(r1),r6	;0x5860(r1)
    e016:	55 a1 aa ba 	dadd.b	-17750(r1),r5	;0xbaaa(r1)
    e01a:	ae b9 82 93 	bit	@r9,	-27774(r14);0x9382(r14)
    e01e:	ae 8e ba 2e 	sub	@r14,	11962(r14);0x2eba(r14)
    e022:	e8 8a e8 22 	sub.b	@r10,	8936(r8);0x22e8(r8)
    e026:	c8 ba aa 9e 	bit.b	r10,	-24918(r8);0x9eaa(r8)
    e02a:	6a ba       	bit.b	@r10,	r10	
    e02c:	9a 49 44 40 	mov	16452(r9),22933(r10);0x4044(r9), 0x5995(r10)
    e030:	95 59 
    e032:	02 a9       	dadd	r9,	r2	
    e034:	5a 0a       	.word	0x0a5a;	????	
    e036:	a6 72 0c 95 	subc	#4,	-27380(r6);r2 As==10, 0x950c(r6)
    e03a:	a5 16       	.word	0x16a5;	????	
    e03c:	45 40       	mov.b	r0,	r5	
    e03e:	94 c2 aa 8e 	bic	&0x8eaa,-22357(r4);0xa8ab(r4)
    e042:	ab a8 
    e044:	ab ba 89 a6 	bit	@r10,	-22903(r11);0xa689(r11)
    e048:	0e ae       	dadd	r14,	r14	
    e04a:	a8 ae ca 80 	dadd	@r14,	-32566(r8);0x80ca(r8)
    e04e:	ae c0 00 00 	bic	@r0,	0(r14)	;0x0000(r14)

0000e052 <key_map_25c>:
    e052:	00 73       	sbc	r0		
    e054:	93 a3       	dadd	#1,	#1	;r3 As==01, r3 As==01
    e056:	00 b3       	bit	#0,	r0	;r3 As==00
    e058:	43 d3       	.word	0xd343;	????	Illegal as 2-op instr
    e05a:	00 72       	subc	r2,	r0	
    e05c:	92 a2 00 b2 	dadd	&0xb200,&0xd342	
    e060:	42 d3 
    e062:	00 b1       	bit	r1,	r0	
    e064:	41 d1       	bis.b	r1,	r1	
    e066:	00 00       	.word	0x0000;	????	
    e068:	63 62       	.word	0x6263;	????	Illegal as 2-op instr
    e06a:	00 00       	.word	0x0000;	????	
    e06c:	00 00       	.word	0x0000;	????	
    e06e:	00 d0       	bis	r0,	r0	
    e070:	40 61       	addc.b	r1,	r0	
    e072:	00 b0       	bit	r0,	r0	
    e074:	b4 00       	.word	0x00b4;	????	
    e076:	00 70       	subc	r0,	r0	
    e078:	90 a0 00 d4 	dadd	-11264(r0),24644(r0);PC rel. 0xb47a, PC rel. 0x40c0
    e07c:	44 60 
    e07e:	00 71       	subc	r1,	r0	
    e080:	91 a1 9e 20 	dadd	8350(r1),8360(r1);0x209e(r1), 0x20a8(r1)
    e084:	a8 20 

0000e082 <rom_25c>:
    e082:	9e 20       	jnz	$+318    	;abs 0xe1c0
    e084:	a8 20       	jnz	$+338    	;abs 0xe1d6
    e086:	45 8a       	sub.b	r10,	r5	
    e088:	5b 32       	jn	$-840    	;abs 0xdd40
    e08a:	68 ee       	xor.b	@r14,	r8	
    e08c:	72 dd       	bis.b	@r13+,	r2	
    e08e:	06 71       	subc	r1,	r6	
    e090:	01 d5       	bis	r5,	r1	
    e092:	12 f6 7f 46 	and	18047(r6),r2	;0x467f(r6)
    e096:	78 38       	jl	$+242    	;abs 0xe188
    e098:	30 62       	addc	#8,	r0	;r2 As==11
    e09a:	e1 1f       	.word	0x1fe1;	????	
    e09c:	b1 03       	.word	0x03b1;	????	
    e09e:	36 75       	subc	@r5+,	r6	
    e0a0:	0f ee       	xor	r14,	r15	
    e0a2:	36 8f       	sub	@r15+,	r6	
    e0a4:	78 da       	bis.b	@r10+,	r8	
    e0a6:	76 74       	subc.b	@r4+,	r6	
    e0a8:	9b 08       	.word	0x089b;	????	
    e0aa:	64 21       	jnz	$+714    	;abs 0xe374
    e0ac:	64 2e       	jc	$-822    	;abs 0xdd76
    e0ae:	99 23       	jnz	$-204    	;abs 0xdfe2
    e0b0:	c2 d5 01 07 	bis.b	r5,	&0x0701	
    e0b4:	27 62       	addc	#4,	r7	;r2 As==10
    e0b6:	16 e1 16 15 	xor	5398(r1),r6	;0x1516(r1)
    e0ba:	fb 16       	.word	0x16fb;	????	
    e0bc:	37 ee       	xor	@r14+,	r7	
    e0be:	1d 75 cf 10 	subc	4303(r5),r13	;0x10cf(r5)
    e0c2:	16 8f 71 9f 	sub	-24719(r15),r6	;0x9f71(r15)
    e0c6:	71 1f       	.word	0x1f71;	????	
    e0c8:	e9 e9 72 26 	xor.b	@r9,	9842(r9);0x2672(r9)
    e0cc:	2b c2       	bic	#4,	r11	;r2 As==10
    e0ce:	ba 14       	.word	0x14ba;	????	
    e0d0:	42 a3       	dadc.b	r2		
    e0d2:	27 e0       	xor	@r0,	r7	
    e0d4:	71 27       	jz	$-284    	;abs 0xdfb8
    e0d6:	5b 27       	jz	$-328    	;abs 0xdf8e
    e0d8:	c6 62 b5 fa 	addc.b	r2,	-1355(r6);0xfab5(r6)
    e0dc:	36 13       	reti			;return from interupt
    e0de:	03 e2       	.word	0xe203;	????	Illegal as 2-op instr
    e0e0:	63 7f       	.word	0x7f63;	????	Illegal as 2-op instr
    e0e2:	d8 3a       	jl	$-590    	;abs 0xde94
    e0e4:	9b 64 75 18 	addc	6261(r4),24693(r11);0x1875(r4), 0x6075(r11)
    e0e8:	75 60 
    e0ea:	16 1f       	.word	0x1f16;	????	
    e0ec:	75 00       	.word	0x0075;	????	
    e0ee:	ac 2c       	jc	$+346    	;abs 0xe248
    e0f0:	87 f9 33 1f 	and	r9,	7987(r7);0x1f33(r7)
    e0f4:	00 68       	addc	r8,	r0	
    e0f6:	68 18       	.word	0x1868;	????	
    e0f8:	71 71       	subc.b	@r1+,	r1	
    e0fa:	84 65 0a f2 	addc	r5,	-3574(r4);0xf20a(r4)
    e0fe:	6b f2       	and.b	#4,	r11	;r2 As==10
    e100:	28 00       	.word	0x0028;	????	
    e102:	46 9c       	cmp.b	r12,	r6	
    e104:	9a aa ba ca 	dadd	-13638(r10),-5414(r10);0xcaba(r10), 0xeada(r10)
    e108:	da ea 
    e10a:	fa 84 77 23 	sub.b	@r4+,	9079(r10);0x2377(r10)
    e10e:	12 61 87 07 	addc	1927(r1),r2	;0x0787(r1)
    e112:	35 37       	jge	$-404    	;abs 0xdf7e
    e114:	76 95       	cmp.b	@r5+,	r6	
    e116:	f8 a5 f8 43 	dadd.b	@r5+,	17400(r8);0x43f8(r8)
    e11a:	11 3d       	jmp	$+548    	;abs 0xe33e
    e11c:	9c f5 e9 00 	and	233(r5),-21348(r12);0x00e9(r5), 0xac9c(r12)
    e120:	9c ac 
    e122:	7b 7a       	subc.b	@r10+,	r11	
    e124:	7c 5e       	add.b	@r14+,	r12	
    e126:	42 46       	mov.b	r6,	r2	
    e128:	62 32       	jn	$-826    	;abs 0xddee
    e12a:	c2 0e       	.word	0x0ec2;	????	
    e12c:	06 f2       	and	r2,	r6	
    e12e:	e1 52 2b 02 	add.b	#4,	555(r1)	;r2 As==10, 0x022b(r1)
    e132:	2d 83       	decd	r13		
    e134:	7f 41       	pop.b	r15		
    e136:	99 42 84 b1 	mov	&0xb184,-19878(r9);0xb25a(r9)
    e13a:	5a b2 
    e13c:	46 84       	sub.b	r4,	r6	
    e13e:	17 0e       	.word	0x0e17;	????	
    e140:	22 46       	mov	@r6,	r2	
    e142:	7e 7e       	subc.b	@r14+,	r14	
    e144:	bd 30       	jn	$+380    	;abs 0xe2c0
    e146:	37 72       	subc	#8,	r7	;r2 As==11
    e148:	c2 cf bd 2e 	bic.b	r15,	&0x2ebd	
    e14c:	ba 34       	jge	$+374    	;abs 0xe2c2
    e14e:	9b 7a 9a b7 	subc	-18534(r10),-31621(r11);0xb79a(r10), 0x847b(r11)
    e152:	7b 84 
    e154:	97 75 06 35 	subc	13574(r5),-32557(r7);0x3506(r5), 0x80d3(r7)
    e158:	d3 80 
    e15a:	3d 4f       	mov	@r15+,	r13	
    e15c:	98 7b 1e 61 	subc	24862(r11),10819(r8);0x611e(r11), 0x2a43(r8)
    e160:	43 2a 
    e162:	16 06       	.word	0x0616;	????	
    e164:	6c ee       	xor.b	@r14,	r12	
    e166:	6c 6c       	addc.b	@r12,	r12	
    e168:	17 e2 cf 90 	xor	&0x90cf,r7	
    e16c:	9b 13       	.word	0x139b;	????	
    e16e:	0b 84       	sub	r4,	r11	
    e170:	85 3f       	jmp	$-244    	;abs 0xe07c
    e172:	46 62       	addc.b	r2,	r6	
    e174:	27 3d       	jmp	$+592    	;abs 0xe3c4
    e176:	b2 21       	jnz	$+870    	;abs 0xe4dc
    e178:	46 44       	mov.b	r4,	r6	
    e17a:	9e f2 06 f2 	and	&0xf206,15940(r14);0x3e44(r14)
    e17e:	44 3e 
    e180:	81 84 45 59 	sub	r4,	22853(r1);0x5945(r1)
    e184:	16 cf 26 c6 	bic	-14810(r15),r6	;0xc626(r15)
    e188:	cf 20       	jnz	$+416    	;abs 0xe328
    e18a:	50 fb 35 53 	and.b	21301(r11),r0	;0x5335(r11)
    e18e:	76 8f       	sub.b	@r15+,	r6	
    e190:	46 8f       	sub.b	r15,	r6	
    e192:	50 6b 76 76 	addc.b	30326(r11),r0	;0x7676(r11)
    e196:	4c 7b       	subc.b	r11,	r12	
    e198:	7b 7b       	subc.b	@r11+,	r11	
    e19a:	16 28       	jnc	$+46     	;abs 0xe1c8
    e19c:	a2 fa 35 62 	and	@r10,	&0x6235	
    e1a0:	76 76       	subc.b	@r6+,	r6	
    e1a2:	eb 6a 87 46 	addc.b	@r10,	18055(r11);0x4687(r11)
    e1a6:	9e 9f 84 44 	cmp	17540(r15),25158(r14);0x4484(r15), 0x6246(r14)
    e1aa:	46 62 
    e1ac:	72 9e       	cmp.b	@r14+,	r2	
    e1ae:	23 7f       	.word	0x7f23;	????	Illegal as 2-op instr
    e1b0:	e6 a6 a6 c6 	dadd.b	@r6,	-14682(r6);0xc6a6(r6)
    e1b4:	a6 12       	call	@r6		
    e1b6:	26 46       	mov	@r6,	r6	
    e1b8:	0e 38       	jl	$+30     	;abs 0xe1d6
    e1ba:	f3 2f       	jc	$-24     	;abs 0xe1a2
    e1bc:	64 bb       	bit.b	@r11,	r4	
    e1be:	4e f5       	and.b	r5,	r14	
    e1c0:	4e 84       	sub.b	r4,	r14	
    e1c2:	46 c6       	bic.b	r6,	r6	
    e1c4:	7b a5       	dadd.b	@r5+,	r11	
    e1c6:	7b 42       	mov.b	#8,	r11	;r2 As==11
    e1c8:	23 26       	jz	$-952    	;abs 0xde10
    e1ca:	46 a9       	dadd.b	r9,	r6	
    e1cc:	9f b6 e8 d5 	bit	-10776(r6),11109(r15);0xd5e8(r6), 0x2b65(r15)
    e1d0:	65 2b 
    e1d2:	73 fe       	.word	0xfe73;	????	Illegal as 2-op instr
    e1d4:	8b 2e       	jc	$-744    	;abs 0xdeec
    e1d6:	75 57       	add.b	@r7+,	r5	
    e1d8:	ba 57 46 cf 	add	@r7+,	-12474(r10);0xcf46(r10)
    e1dc:	56 26       	jz	$-850    	;abs 0xde8a
    e1de:	53 68       	.word	0x6853;	????	Illegal as 2-op instr
    e1e0:	2e 84       	sub	@r4,	r14	
    e1e2:	7b 9d       	cmp.b	@r13+,	r11	
    e1e4:	9f e5 40 8f 	xor	-28864(r5),-16650(r15);0x8f40(r5), 0xbef6(r15)
    e1e8:	f6 be 
    e1ea:	97 f8 2e 7d 	and	32046(r8),386(r7)	;0x7d2e(r8), 0x0182(r7)
    e1ee:	82 01 
    e1f0:	7b 7b       	subc.b	@r11+,	r11	
    e1f2:	7b 7b       	subc.b	@r11+,	r11	
    e1f4:	a7 7b a3 93 	subc	@r11,	-27741(r7);0x93a3(r7)
    e1f8:	a3 ba       	bit	@r10,	#1	;r3 As==01
    e1fa:	95 45 23 16 	mov	5667(r5),-22218(r5);0x1623(r5), 0xa936(r5)
    e1fe:	36 a9 
    e200:	e8 05       	.word	0x05e8;	????	
    e202:	6f 16       	.word	0x166f;	????	
    e204:	28 fa       	and	@r10,	r8	
    e206:	35 62       	addc	#8,	r5	;r2 As==11
    e208:	76 76       	subc.b	@r6+,	r6	
    e20a:	e8 23       	jnz	$-46     	;abs 0xe1dc
    e20c:	43 fe       	.word	0xfe43;	????	Illegal as 2-op instr
    e20e:	fb 63 3d 56 	addc.b	#-1,	22077(r11);r3 As==11, 0x563d(r11)
    e212:	08 d9       	bis	r9,	r8	
    e214:	84 7b 73 12 	subc	r11,	4723(r4);0x1273(r4)
    e218:	bc 23       	jnz	$-134    	;abs 0xe192
    e21a:	16 46 12 91 	mov	-28398(r6),r6	;0x9112(r6)
    e21e:	b9 d1 7b 7b 	bis	@r1+,	31611(r9);0x7b7b(r9)
    e222:	7b 6d       	addc.b	@r13+,	r11	
    e224:	6f 7b       	subc.b	@r11,	r15	
    e226:	63 7b       	.word	0x7b63;	????	Illegal as 2-op instr
    e228:	d4 7b 84 35 	subc.b	13700(r11),15979(r4);0x3584(r11), 0x3e6b(r4)
    e22c:	6b 3e 
    e22e:	06 16       	.word	0x1606;	????	
    e230:	46 84       	sub.b	r4,	r6	
    e232:	97 78 38 38 	subc	14392(r8),5667(r7);0x3838(r8), 0x1623(r7)
    e236:	23 16 
    e238:	56 12 a1 a9 	push.b	-22111(r6)	;0xa9a1(r6)
    e23c:	e3 e9       	xor.b	@r9,	#1	;r3 As==01
    e23e:	8f c6 8f a5 	bic	r6,	-23153(r15);0xa58f(r15)
    e242:	71 97       	cmp.b	@r7+,	r1	
    e244:	63 98       	.word	0x9863;	????	Illegal as 2-op instr
    e246:	98 8e 23 26 	sub	9763(r14),-22218(r8);0x2623(r14), 0xa936(r8)
    e24a:	36 a9 
    e24c:	12 e1 9f a6 	xor	-22881(r1),r2	;0xa69f(r1)
    e250:	e9 4d d5 08 	mov.b	@r13,	2261(r9);0x08d5(r9)
    e254:	00 dc       	bis	r12,	r0	
    e256:	7b 7b       	subc.b	@r11+,	r11	
    e258:	7b 7b       	subc.b	@r11+,	r11	
    e25a:	7b 7b       	subc.b	@r11+,	r11	
    e25c:	41 93       	tst.b	r1		
    e25e:	95 78 a7 75 	subc	30119(r8),-1995(r5);0x75a7(r8), 0xf835(r5)
    e262:	35 f8 
    e264:	33 37       	jge	$-408    	;abs 0xe0cc
    e266:	ee f7 78 f2 	and.b	@r7,	-3464(r14);0xf278(r14)
    e26a:	12 22       	jnz	$-986    	;abs 0xde90
    e26c:	38 fc       	and	@r12+,	r8	
    e26e:	35 78       	subc	@r8+,	r5	
    e270:	35 29       	jnc	$+620    	;abs 0xe4dc
    e272:	f7 7b 32 44 	subc.b	@r11+,	17458(r7);0x4432(r7)
    e276:	cf 43 16 d3 	mov.b	#0,	-11498(r15);r3 As==00, 0xd316(r15)
    e27a:	04 00       	.word	0x0004;	????	
    e27c:	26 76       	subc	@r6,	r6	
    e27e:	76 76       	subc.b	@r6+,	r6	
    e280:	26 84       	sub	@r4,	r6	
    e282:	41 41       	mov.b	r1,	r1	
    e284:	41 41       	mov.b	r1,	r1	
    e286:	41 60       	addc.b	r0,	r1	
    e288:	5f 5e 1d 27 	add.b	10013(r14),r15	;0x271d(r14)
    e28c:	91 a1 7e 91 	dadd	-28290(r1),25505(r1);0x917e(r1), 0x63a1(r1)
    e290:	a1 63 
    e292:	1c 20       	jnz	$+58     	;abs 0xe2cc
    e294:	78 78       	subc.b	@r8+,	r8	
    e296:	78 c2       	bic.b	#8,	r8	;r2 As==11
    e298:	a8 98 98 ef 	cmp	@r8,	-4200(r8);0xef98(r8)
    e29c:	16 df 26 36 	bis	13862(r15),r6	;0x3626(r15)
    e2a0:	26 58       	add	@r8,	r6	
    e2a2:	26 46       	mov	@r6,	r6	
    e2a4:	1e 78 7a 31 	subc	12666(r8),r14	;0x317a(r8)
    e2a8:	7a 7a       	subc.b	@r10+,	r10	
    e2aa:	7a 30       	jn	$+246    	;abs 0xe3a0
    e2ac:	7a 79       	subc.b	@r9+,	r10	
    e2ae:	78 78       	subc.b	@r8+,	r8	
    e2b0:	78 78       	subc.b	@r8+,	r8	
    e2b2:	78 78       	subc.b	@r8+,	r8	
    e2b4:	7a 78       	subc.b	@r8+,	r10	
    e2b6:	26 5a       	add	@r10,	r6	
    e2b8:	32 2b       	jnc	$-410    	;abs 0xe11e
    e2ba:	47 44       	mov.b	r4,	r7	
    e2bc:	9f bf 93 a3 	bit	-23661(r15),27875(r15);0xa393(r15), 0x6ce3(r15)
    e2c0:	e3 6c 
    e2c2:	e1 73 02 c2 	subc.b	#2,	-15870(r1);r3 As==10, 0xc202(r1)
    e2c6:	6b 44       	mov.b	@r4,	r11	
    e2c8:	d2 94 e5 94 	cmp.b	-27419(r4),&0x3616	;0x94e5(r4)
    e2cc:	16 36 
    e2ce:	9f 26       	jz	$-704    	;abs 0xe00e
    e2d0:	71 59       	add.b	@r9+,	r1	
    e2d2:	40 24       	jz	$+130    	;abs 0xe354
    e2d4:	f9 16       	.word	0x16f9;	????	
    e2d6:	df 74 27 02 	subc.b	551(r4),29087(r15);0x0227(r4), 0x719f(r15)
    e2da:	9f 71 
    e2dc:	44 52       	add.b	r2,	r4	
    e2de:	3d 21       	jnz	$+636    	;abs 0xe55a
    e2e0:	78 78       	subc.b	@r8+,	r8	
    e2e2:	78 78       	subc.b	@r8+,	r8	
    e2e4:	84 6d ab 2b 	addc	r13,	11179(r4);0x2bab(r4)
    e2e8:	73 02       	.word	0x0273;	????	
    e2ea:	9f 41 6a 6a 	mov	27242(r1),-22748(r15);0x6a6a(r1), 0xa724(r15)
    e2ee:	24 a7 
    e2f0:	9d 95 9d 16 	cmp	5789(r5),30294(r13);0x169d(r5), 0x7656(r13)
    e2f4:	56 76 
    e2f6:	16 46 f6 84 	mov	-31498(r6),r6	;0x84f6(r6)
    e2fa:	7a 7a       	subc.b	@r10+,	r10	
    e2fc:	7a 84       	sub.b	@r4+,	r10	
    e2fe:	00 00       	.word	0x0000;	????	
    e300:	6d 26       	jz	$-804    	;abs 0xdfdc
    e302:	73 02       	.word	0x0273;	????	
    e304:	58 e3       	xor.b	#1,	r8	;r3 As==01
    e306:	9a 8a e1 6b 	sub	27617(r10),-29589(r10);0x6be1(r10), 0x8c6b(r10)
    e30a:	6b 8c 
    e30c:	9a c5 72 f1 	bic	-3726(r5),-11630(r10);0xf172(r5), 0xd292(r10)
    e310:	92 d2 
    e312:	a4 2e       	jc	$-694    	;abs 0xe05c
    e314:	a6 c0 13 e7 	bic	@r0,	-6381(r6);0xe713(r6)
    e318:	a8 1b       	.word	0x1ba8;	????	
    e31a:	3b ba       	bit	@r10+,	r11	
    e31c:	a7 42 9b 9b 	mov	#4,	-25701(r7);r2 As==10, 0x9b9b(r7)
    e320:	b6 33       	jn	$-146    	;abs 0xe28e
    e322:	23 ba       	.word	0xba23;	????	Illegal as 2-op instr
    e324:	a9 a3 9a 23 	dadd	#2,	9114(r9);r3 As==10, 0x239a(r9)
    e328:	0b 0d       	.word	0x0d0b;	????	
    e32a:	71 2c       	jc	$+228    	;abs 0xe40e
    e32c:	12 53       	inc	r2		
    e32e:	55 2f       	jc	$-340    	;abs 0xe1da
    e330:	7f 38       	jl	$+256    	;abs 0xe430
    e332:	a8 38       	jl	$+338    	;abs 0xe484
    e334:	64 09       	.word	0x0964;	????	
    e336:	2f af       	dadd	@r15,	r15	
    e338:	9b b9 bd 9b 	bit	-25667(r9),-27747(r11);0x9bbd(r9), 0x939d(r11)
    e33c:	9d 93 
    e33e:	f5 93 f5 9f 	cmp.b	#-1,	-24587(r5);r3 As==11, 0x9ff5(r5)
    e342:	44 01       	.word	0x0144;	????	
    e344:	91 c2 84 72 	bic	&0x7284,-11949(r1);0xd153(r1)
    e348:	53 d1 
    e34a:	f1 d2 b5 c0 	bis.b	#8,	-16203(r1);r2 As==11, 0xc0b5(r1)
    e34e:	13 8f       	.word	0x8f13;	????	Illegal as 2-op instr
    e350:	d0 b9 93 d5 	bit.b	-10861(r9),4867(r0);0xd593(r9), PC rel. 0xf657
    e354:	03 13 
    e356:	a9 f5 d0 ed 	and	@r5,	-4656(r9);0xedd0(r9)
    e35a:	6b d7       	bis.b	@r7,	r11	
    e35c:	42 2b       	jnc	$-378    	;abs 0xe1e2
    e35e:	42 02       	.word	0x0242;	????	
    e360:	7f 64       	addc.b	@r4+,	r15	
    e362:	93 df 01 d5 	bis	-11007(r15),#1	;0xd501(r15), r3 As==01
    e366:	ba 1f       	.word	0x1fba;	????	
    e368:	f4 8e c0 13 	sub.b	@r14+,	5056(r4);0x13c0(r4)
    e36c:	d2 39       	jl	$+934    	;abs 0xe712
    e36e:	bd 64 93 eb 	addc	@r4+,	-5229(r13);0xeb93(r13)
    e372:	f4 7f 6b ee 	subc.b	@r15+,	-4501(r4);0xee6b(r4)
    e376:	06 29       	jnc	$+526    	;abs 0xe584
    e378:	55 fe 6c ef 	and.b	-4244(r14),r5	;0xef6c(r14)
    e37c:	6b d7       	bis.b	@r7,	r11	
    e37e:	bf 64 1b 84 	addc	@r4+,	-31717(r15);0x841b(r15)
    e382:	48 48       	mov.b	r8,	r8	
    e384:	48 48       	mov.b	r8,	r8	
    e386:	48 48       	mov.b	r8,	r8	
    e388:	48 48       	mov.b	r8,	r8	
    e38a:	48 48       	mov.b	r8,	r8	
    e38c:	a9 85 18 18 	sub	@r5,	6168(r9);0x1818(r9)
    e390:	18 18       	.word	0x1818;	????	
    e392:	8f 8f 8f 8f 	sub	r15,	-28785(r15);0x8f8f(r15)
    e396:	8f 7a 7a a2 	subc	r10,	-23942(r15);0xa27a(r15)
    e39a:	5d 20       	jnz	$+188    	;abs 0xe456
    e39c:	7a 58       	add.b	@r8+,	r10	
    e39e:	08 7a       	subc	r10,	r8	
    e3a0:	7a 4d       	mov.b	@r13+,	r10	
    e3a2:	30 dd       	bis	@r13+,	r0	
    e3a4:	c9 06       	.word	0x06c9;	????	
    e3a6:	96 5f 26 74 	add	29734(r15),-13450(r6);0x7426(r15), 0xcb76(r6)
    e3aa:	76 cb 
    e3ac:	c9 21       	jnz	$+916    	;abs 0xe740
    e3ae:	46 3e       	jmp	$-882    	;abs 0xe03c
    e3b0:	37 5d       	add	@r13+,	r7	
    e3b2:	22 1d       	.word	0x1d22;	????	
    e3b4:	38 32       	jn	$-910    	;abs 0xe026
    e3b6:	45 29       	jnc	$+652    	;abs 0xe642
    e3b8:	3e ec       	xor	@r12+,	r14	
    e3ba:	8a 08       	.word	0x088a;	????	
    e3bc:	52 2e       	jc	$-858    	;abs 0xe062
    e3be:	46 cf       	bic.b	r15,	r6	
    e3c0:	86 9f 76 cf 	cmp	r15,	-12426(r6);0xcf76(r6)
    e3c4:	c2 95 c1 13 	cmp.b	r5,	&0x13c1	
    e3c8:	9e 84 99 e5 	sub	-6759(r4),30230(r14);0xe599(r4), 0x7616(r14)
    e3cc:	16 76 
    e3ce:	07 76       	subc	r6,	r7	
    e3d0:	76 52       	add.b	#8,	r6	;r2 As==11
    e3d2:	25 dd       	bis	@r13,	r5	
    e3d4:	d5 13       	.word	0x13d5;	????	
    e3d6:	42 e3       	xor.b	#0,	r2	;r3 As==00
    e3d8:	35 fd       	and	@r13+,	r5	
    e3da:	3e fa       	and	@r10+,	r14	
    e3dc:	3a 16       	.word	0x163a;	????	
    e3de:	7d a6       	dadd.b	@r6+,	r13	
    e3e0:	0e 20       	jnz	$+30     	;abs 0xe3fe
    e3e2:	74 20       	jnz	$+234    	;abs 0xe4cc
    e3e4:	64 bc       	bit.b	@r12,	r4	
    e3e6:	bb c2 e5 c1 	bic	#8,	-15899(r11);r2 As==11, 0xc1e5(r11)
    e3ea:	9c 26       	jz	$-710    	;abs 0xe124
    e3ec:	2e 6d       	addc	@r13,	r14	
    e3ee:	ac 84 0e 11 	sub	@r4,	4366(r12);0x110e(r12)
    e3f2:	f6 6f 4e 64 	addc.b	@r15+,	25678(r6);0x644e(r6)
    e3f6:	0b dc       	bis	r12,	r11	
    e3f8:	84 c2 52 bd 	bic	r2,	-17070(r4);0xbd52(r4)
    e3fc:	ff 9d fd fe 	cmp.b	@r13+,	-259(r15);0xfefd(r15)
    e400:	64 f2       	and.b	#4,	r4	;r2 As==10
    e402:	95 45 77 41 	mov	16759(r5),25274(r5);0x4177(r5), 0x62ba(r5)
    e406:	ba 62 
    e408:	27 e2       	xor	#4,	r7	;r2 As==10
    e40a:	b2 e2 17 e3 	xor	#8,	&0xe317	;r2 As==11
    e40e:	77 13       	.word	0x1377;	????	
    e410:	84 1b       	.word	0x1b84;	????	
    e412:	fb 9c 0e 73 	cmp.b	@r12+,	29454(r11);0x730e(r11)
    e416:	02 24       	jz	$+6      	;abs 0xe41c
    e418:	52 eb 12 23 	xor.b	8978(r11),r2	;0x2312(r11)
    e41c:	42 e3       	xor.b	#0,	r2	;r3 As==00
    e41e:	52 dd e8 7d 	bis.b	32232(r13),r2	;0x7de8(r13)
    e422:	42 ba       	bit.b	r10,	r2	
    e424:	af 3a       	jl	$-672    	;abs 0xe184
    e426:	42 90       	cmp.b	r0,	r2	
    e428:	76 76       	subc.b	@r6+,	r6	
    e42a:	5c 72 bc e2 	subc.b	&0xe2bc,r12	
    e42e:	74 74       	subc.b	@r4+,	r4	
    e430:	6b fe       	and.b	@r14,	r11	
    e432:	64 bc       	bit.b	@r12,	r4	
    e434:	00 80       	sub	r0,	r0	
    e436:	95 45 43 35 	mov	13635(r5),-1305(r5);0x3543(r5), 0xfae7(r5)
    e43a:	e7 fa 
    e43c:	3a 0e       	.word	0x0e3a;	????	
    e43e:	bb eb 42 2d 	xor	@r11+,	11586(r11);0x2d42(r11)
    e442:	36 44       	mov	@r4+,	r6	
    e444:	78 65       	addc.b	@r5+,	r8	
    e446:	52 45 42 13 	mov.b	4930(r5),r2	;0x1342(r5)
    e44a:	e3 4d       	mov.b	@r13,	#1	;r3 As==01
    e44c:	e3 16       	.word	0x16e3;	????	
    e44e:	6e 6e       	addc.b	@r14,	r14	
    e450:	6d c5       	bic.b	@r5,	r13	
    e452:	e1 4d e3 6f 	mov.b	@r13,	28643(r1);0x6fe3(r1)
    e456:	0e 11       	rra	r14		
    e458:	16 76 71 6d 	subc	28017(r6),r6	;0x6d71(r6)
    e45c:	c5 46 36 66 	mov.b	r6,	26166(r5);0x6636(r5)
    e460:	7f 5d       	add.b	@r13+,	r15	
    e462:	dc 62 21 12 	addc.b	&0x1221,-15091(r12);0xc50d(r12)
    e466:	0d c5 
    e468:	62 2b       	jnc	$-314    	;abs 0xe32e
    e46a:	fa 8a 17 29 	sub.b	@r10+,	10519(r10);0x2917(r10)
    e46e:	f5 f1 22 3a 	and.b	@r1+,	14882(r5);0x3a22(r5)
    e472:	fa 0e       	.word	0x0efa;	????	
    e474:	bb df 47 32 	bis	@r15+,	12871(r11);0x3247(r11)
    e478:	42 2b       	jnc	$-378    	;abs 0xe2fe
    e47a:	6a 24       	jz	$+214    	;abs 0xe550
    e47c:	c2 52 7d 42 	add.b	r2,	&0x427d	
    e480:	44 84       	sub.b	r4,	r4	
    e482:	77 87       	sub.b	@r7+,	r7	
    e484:	7c ca       	bic.b	@r10+,	r12	
    e486:	08 85       	sub	r5,	r8	
    e488:	1d 08       	.word	0x081d;	????	
    e48a:	08 d0       	bis	r0,	r8	
    e48c:	d6 dc aa eb 	bis.b	-5206(r12),-5141(r6);0xebaa(r12), 0xebeb(r6)
    e490:	eb eb 
    e492:	91 c5 91 9e 	bic	-24943(r5),-7513(r1);0x9e91(r5), 0xe2a7(r1)
    e496:	a7 e2 
    e498:	eb 6c 6c f8 	addc.b	@r12,	-1940(r11);0xf86c(r11)
    e49c:	5b 2d       	jc	$+696    	;abs 0xe754
    e49e:	e2 b2 23 e2 	bit.b	#4,	&0xe223	;r2 As==10
    e4a2:	91 c2 91 9c 	bic	&0x9c91,-23074(r1);0xa5de(r1)
    e4a6:	de a5 
    e4a8:	eb eb ed cf 	xor.b	@r11,	-12307(r11);0xcfed(r11)
    e4ac:	95 38       	jl	$+300    	;abs 0xe5d8
    e4ae:	89 06       	.word	0x0689;	????	
    e4b0:	68 cb       	bic.b	@r11,	r8	
    e4b2:	73 22       	jnz	$-792    	;abs 0xe19a
    e4b4:	72 7f       	subc.b	@r15+,	r2	
    e4b6:	c2 04       	.word	0x04c2;	????	
    e4b8:	93 24       	jz	$+296    	;abs 0xe5e0
    e4ba:	fc 7e 2e da 	subc.b	@r14+,	-9682(r12);0xda2e(r12)
    e4be:	90 3e       	jmp	$-734    	;abs 0xe1e0
    e4c0:	81 7f db 90 	subc	r15,	-28453(r1);0x90db(r1)
    e4c4:	6e 26       	jz	$-802    	;abs 0xe1a2
    e4c6:	d3 62 3e 2e 	addc.b	&0x2e3e,#1	;r3 As==01
    e4ca:	46 78       	subc.b	r8,	r6	
    e4cc:	d3 06       	.word	0x06d3;	????	
    e4ce:	68 db       	bis.b	@r11,	r8	
    e4d0:	72 da       	bis.b	@r10+,	r2	
    e4d2:	90 44 7d 51 	mov	20861(r4),-2336(r0);0x517d(r4), PC rel. 0xdbb6
    e4d6:	e0 f6 
    e4d8:	6b 55       	add.b	@r5,	r11	
    e4da:	06 bf       	bit	r15,	r6	
    e4dc:	84 a2 8a 9b 	dadd	r2,	-25718(r4);0x9b8a(r4)
    e4e0:	9b da 9b 06 	bis	1691(r10),7386(r11);0x069b(r10), 0x1cda(r11)
    e4e4:	da 1c 
    e4e6:	26 1b       	.word	0x1b26;	????	
    e4e8:	64 39       	jl	$+714    	;abs 0xe7b2
    e4ea:	1b 93       	cmp	#1,	r11	;r3 As==01
    e4ec:	66 21       	jnz	$+718    	;abs 0xe7ba
    e4ee:	33 03       	.word	0x0333;	????	
    e4f0:	27 97       	cmp	@r7,	r7	
    e4f2:	26 6d       	addc	@r13,	r6	
    e4f4:	c5 95 26 46 	cmp.b	r5,	17958(r5);0x4626(r5)
    e4f8:	9b 8a ac 82 	sub	-32084(r10),-7980(r11);0x82ac(r10), 0xe0d4(r11)
    e4fc:	d4 e0 
    e4fe:	82 8a da e0 	sub	r10,	&0xe0da	
    e502:	00 00       	.word	0x0000;	????	
    e504:	00 00       	.word	0x0000;	????	
    e506:	00 13       	reti			
    e508:	e2 8a 79 2e 	sub.b	@r10,	&0x2e79	
    e50c:	8a ac 62 72 	dadd	r12,	29282(r10);0x7262(r10)
    e510:	a1 ad 0d c6 	dadd	@r13,	-14835(r1);0xc60d(r1)
    e514:	29 38       	jl	$+84     	;abs 0xe568
    e516:	84 fc 7e 26 	and	r12,	9854(r4);0x267e(r4)
    e51a:	3e 81       	sub	@r1+,	r14	
    e51c:	db e0 a2 d3 	xor.b	-11358(r0),12765(r11);PC rel. 0xb8c0, 0x31dd(r11)
    e520:	dd 31 
    e522:	97 38       	jl	$+304    	;abs 0xe652
    e524:	3d fa       	and	@r10+,	r13	
    e526:	e2 12       	.word	0x12e2;	????	
    e528:	08 fc       	and	r12,	r8	
    e52a:	5d d4 2e 8a 	bis.b	-30162(r4),r13	;0x8a2e(r4)
    e52e:	a3 da       	bis	@r10,	#1	;r3 As==01
    e530:	91 6e 5d e1 	addc	-7843(r14),23934(r1);0xe15d(r14), 0x5d7e(r1)
    e534:	7e 5d 
    e536:	4d 72       	subc.b	r2,	r13	
    e538:	a2 da 5e 5d 	bis	@r10,	&0x5d5e	
    e53c:	e1 a2 26 2e 	dadd.b	#4,	11814(r1);r2 As==10, 0x2e26(r1)
    e540:	a7 30       	jn	$+336    	;abs 0xe690
    e542:	ac 58 a2 26 	add	@r8,	9890(r12);0x26a2(r12)
    e546:	d3 bc 28 97 	bit.b	-26840(r12),#1	;0x9728(r12), r3 As==01
    e54a:	28 e2       	xor	#4,	r8	;r2 As==10
    e54c:	82 8a 81 db 	sub	r10,	&0xdb81	
    e550:	e0 02       	.word	0x02e0;	????	
    e552:	46 62       	addc.b	r2,	r6	
    e554:	1e ac 5d 2a 	dadd	10845(r12),r14	;0x2a5d(r12)
    e558:	82 b2 26 e0 	bit	r2,	&0xe026	
    e55c:	58 58 92 e0 	add.b	-8046(r8),r8	;0xe092(r8)
    e560:	fc 8e 62 21 	sub.b	@r14+,	8546(r12);0x2162(r12)
    e564:	38 2e       	jc	$-910    	;abs 0xe1d6
    e566:	3d 43       	mov	#-1,	r13	;r3 As==11
    e568:	cf 56 e6 d2 	add.b	r6,	-11546(r15);0xd2e6(r15)
    e56c:	15 1d       	.word	0x1d15;	????	
    e56e:	27 46       	mov	@r6,	r7	
    e570:	9c 0a       	.word	0x0a9c;	????	
    e572:	1a 2a       	jnc	$-970    	;abs 0xe1a8
    e574:	3a 4a       	mov	@r10+,	r10	
    e576:	5a 6a 7a e2 	addc.b	-7558(r10),r10	;0xe27a(r10)
    e57a:	42 24       	jz	$+134    	;abs 0xe600
    e57c:	42 e2       	xor.b	r2,	r2	
    e57e:	27 3f       	jmp	$-432    	;abs 0xe3ce
    e580:	b2 84 d0 5f 	sub	@r4+,	&0x5fd0	
    e584:	d1 d2 72 71 	bis.b	&0x7172,19315(r1);0x4b73(r1)
    e588:	73 4b 
    e58a:	49 a8       	dadd.b	r8,	r9	
    e58c:	3d c9       	bic	@r9+,	r13	
    e58e:	de 4d 63 67 	mov.b	26467(r13),24586(r14);0x6763(r13), 0x600a(r14)
    e592:	0a 60 
    e594:	8b f9 94 93 	and	r9,	-27756(r11);0x9394(r11)
    e598:	95 fd fc 91 	and	-28164(r13),-14835(r5);0x91fc(r13), 0xc60d(r5)
    e59c:	0d c6 
    e59e:	73 22       	jnz	$-792    	;abs 0xe286
    e5a0:	72 8a       	sub.b	@r10+,	r2	
    e5a2:	0e 7f       	subc	r15,	r14	
    e5a4:	12 c2 24 00 	bic	&0x0024,r2	
    e5a8:	18 97 76 84 	cmp	-31626(r7),r8	;0x8476(r7)
    e5ac:	7f 0e       	.word	0x0e7f;	????	
    e5ae:	6a 6a       	addc.b	@r10,	r10	
    e5b0:	7a 7a       	subc.b	@r10+,	r10	
    e5b2:	c3 4c       	mov.b	r12,	#1	;r3 As==01
    e5b4:	26 25       	jz	$+590    	;abs 0xe802
    e5b6:	bd 4d 26 3d 	mov	@r13+,	15654(r13);0x3d26(r13)
    e5ba:	c3 ee       	xor.b	r14,	#1	;r3 As==01
    e5bc:	f6 6b b6 ee 	addc.b	@r11+,	-4426(r6);0xeeb6(r6)
    e5c0:	38 42       	mov	#8,	r8	;r2 As==11
    e5c2:	2c 42       	mov	#4,	r12	;r2 As==10
    e5c4:	7f 94       	cmp.b	@r4+,	r15	
    e5c6:	6d 06       	.word	0x066d;	????	
    e5c8:	68 6b       	addc.b	@r11,	r8	
    e5ca:	a2 81 68 81 	sub	@r1,	&0x8168	
    e5ce:	68 2e       	jc	$-814    	;abs 0xe2a0
    e5d0:	72 e1       	xor.b	@r1+,	r2	
    e5d2:	78 46       	mov.b	@r6+,	r8	
    e5d4:	4f 76       	subc.b	r6,	r15	
    e5d6:	86 56 36 96 	add	r6,	-27082(r6);0x9636(r6)
    e5da:	86 16       	.word	0x1686;	????	
    e5dc:	66 36       	jge	$-818    	;abs 0xe2aa
    e5de:	56 7f 84 91 	subc.b	-28284(r15),r6	;0x9184(r15)
    e5e2:	48 00       	.word	0x0048;	????	
    e5e4:	00 2e       	jc	$-1022   	;abs 0xe1e6
    e5e6:	72 db       	bis.b	@r11+,	r2	
    e5e8:	e2 2e       	jc	$-570    	;abs 0xe3ae
    e5ea:	72 7f       	subc.b	@r15+,	r2	
    e5ec:	81 dc e2 94 	bis	r12,	-27422(r1);0x94e2(r1)
    e5f0:	a0 d1 84 71 	bis	@r1,	29060(r0);PC rel. 0x5776
    e5f4:	e1 3f       	jmp	$-60     	;abs 0xe5b8
    e5f6:	91 1d       	.word	0x1d91;	????	
    e5f8:	53 7f       	.word	0x7f53;	????	Illegal as 2-op instr
    e5fa:	e7 c5 ac 24 	bic.b	@r5,	9388(r7);0x24ac(r7)
    e5fe:	7d 0f       	.word	0x0f7d;	????	
    e600:	62 26       	jz	$-826    	;abs 0xe2c6
    e602:	a2 db 1a c7 	bis	@r11,	&0xc71a	
    e606:	61 ac       	dadd.b	@r12,	r1	
    e608:	82 b2 72 db 	bit	r2,	&0xdb72	
    e60c:	d7 50 a7 75 	add.b	30119(r0),25266(r7);PC rel. 0x5bb5, 0x62b2(r7)
    e610:	b2 62 
    e612:	73 a1       	.word	0xa173;	????	Illegal as 2-op instr
    e614:	a4 71 e1 3f 	subc	@r1,	16353(r4);0x3fe1(r4)
    e618:	d5 67 26 dc 	addc.b	-9178(r7),24145(r5);0xdc26(r7), 0x5e51(r5)
    e61c:	51 5e 
    e61e:	db 1d       	.word	0x1ddb;	????	
    e620:	53 78       	.word	0x7853;	????	Illegal as 2-op instr
    e622:	06 90       	cmp	r0,	r6	
    e624:	6b 84       	sub.b	@r4,	r11	
    e626:	82 b2 26 84 	bit	r2,	&0x8426	
    e62a:	a1 bc 6b c1 	bit	@r12,	-16021(r1);0xc16b(r1)
    e62e:	62 72       	subc.b	#4,	r2	;r2 As==10
    e630:	a2 d5 6c bd 	bis	@r5,	&0xbd6c	
    e634:	75 7f       	subc.b	@r15+,	r5	
    e636:	dc 1a       	.word	0x1adc;	????	
    e638:	62 da       	bis.b	@r10,	r2	
    e63a:	a4 da 82 2a 	bis	@r10,	10882(r4);0x2a82(r4)
    e63e:	92 92 d2 62 	cmp	&0x62d2,&0x8e1a	
    e642:	1a 8e 
    e644:	26 4e       	mov	@r14,	r6	
    e646:	e1 7f 46 78 	subc.b	@r15,	30790(r1);0x7846(r1)
    e64a:	a7 72 ac 26 	subc	#4,	9900(r7);r2 As==10, 0x26ac(r7)
    e64e:	3e e1       	xor	@r1+,	r14	
    e650:	4d d1       	bis.b	r1,	r13	
    e652:	38 da       	bis	@r10+,	r8	
    e654:	44 d7       	bis.b	r7,	r4	
    e656:	51 5e 5e 62 	add.b	25182(r14),r1	;0x625e(r14)
    e65a:	4d e1       	xor.b	r1,	r13	
    e65c:	2e 68       	addc	@r8,	r14	
    e65e:	8b 68 2e 72 	addc	r8,	29230(r11);0x722e(r11)
    e662:	ac 2a       	jnc	$-678    	;abs 0xe3bc
    e664:	1a bc 2b 49 	bit	18731(r12),r10	;0x492b(r12)
    e668:	46 44       	mov.b	r4,	r6	
    e66a:	9e 06       	.word	0x069e;	????	
    e66c:	b6 1d       	.word	0x1db6;	????	
    e66e:	33 a7       	.word	0xa733;	????	Illegal as 2-op instr
    e670:	75 06       	.word	0x0675;	????	
    e672:	68 bd       	bit.b	@r13,	r8	
    e674:	5f 62 dc 72 	addc.b	&0x72dc,r15	
    e678:	db 1a       	.word	0x1adb;	????	
    e67a:	80 82 26 b1 	sub	r2,	-20186(r0);PC rel. 0x97a2
    e67e:	61 81       	sub.b	@r1,	r1	
    e680:	06 e5       	xor	r5,	r6	
    e682:	e8 ee 9c e8 	xor.b	@r14,	-5988(r8);0xe89c(r8)
    e686:	7f 7c       	subc.b	@r12+,	r15	
    e688:	1e fb 90 05 	and	1424(r11),r14	;0x0590(r11)
    e68c:	11 4c 7b 2f 	mov	12155(r12),r1	;0x2f7b(r12)
    e690:	af 3f       	jmp	$-160    	;abs 0xe5f0
    e692:	38 df       	bis	@r15+,	r8	
    e694:	37 d8       	bis	@r8+,	r7	
    e696:	6f 37       	jge	$-288    	;abs 0xe576
    e698:	80 4f 37 64 	mov	r15,	25655(r0);PC rel. 0x4ad1
    e69c:	37 f0 37 73 	and	#29495,	r7	;#0x7337
    e6a0:	26 8e       	sub	@r14,	r6	
    e6a2:	b2 88 8e 16 	sub	@r8+,	&0x168e	
    e6a6:	64 76       	subc.b	@r6,	r4	
    e6a8:	5b 89 26 bc 	sub.b	-17370(r9),r11	;0xbc26(r9)
    e6ac:	8b ad 7b 4f 	dadd	r13,	20347(r11);0x4f7b(r11)
    e6b0:	be b5 b6 67 	bit	@r5+,	26550(r14);0x67b6(r14)
    e6b4:	75 73       	subc.b	#-1,	r5	;r3 As==11
    e6b6:	dd 9a 78 ee 	cmp.b	-4488(r10),15166(r13);0xee78(r10), 0x3b3e(r13)
    e6ba:	3e 3b 
    e6bc:	4e 9c       	cmp.b	r12,	r14	
    e6be:	3a 26       	jz	$-906    	;abs 0xe334
    e6c0:	77 26       	jz	$-784    	;abs 0xe3b0
    e6c2:	af 26       	jz	$-672    	;abs 0xe422
    e6c4:	1e 2d       	jc	$+574    	;abs 0xe902
    e6c6:	5a a0 7a ee 	dadd.b	-4486(r0),r10	;PC rel. 0xd542
    e6ca:	7b 47       	mov.b	@r7+,	r11	
    e6cc:	a9 72 dc 72 	subc	#4,	29404(r9);r2 As==10, 0x72dc(r9)
    e6d0:	41 f0       	and.b	r0,	r1	
    e6d2:	4f 36       	jge	$-864    	;abs 0xe372
    e6d4:	64 6f       	addc.b	@r15,	r4	
    e6d6:	36 80 df 36 	sub	#14047,	r6	;#0x36df
    e6da:	d8 3f       	jmp	$-78     	;abs 0xe68c
    e6dc:	36 36       	jge	$-914    	;abs 0xe34a
    e6de:	36 bf       	bit	@r15+,	r6	
    e6e0:	01 af       	dadd	r15,	r1	
    e6e2:	3e 26       	jz	$-898    	;abs 0xe360
    e6e4:	66 94       	cmp.b	@r4,	r6	
    e6e6:	df 36       	jge	$-576    	;abs 0xe4a6
    e6e8:	16 06       	.word	0x0616;	????	
    e6ea:	16 76 96 86 	subc	-31082(r6),r6	;0x8696(r6)
    e6ee:	06 56       	rla	r6		
    e6f0:	56 b9 a2 d6 	bit.b	-10590(r9),r6	;0xd6a2(r9)
    e6f4:	2e 46       	mov	@r6,	r14	
    e6f6:	7f 26       	jz	$-768    	;abs 0xe3f6
    e6f8:	36 06       	.word	0x0636;	????	
    e6fa:	26 56       	add	@r6,	r6	
    e6fc:	84 14       	.word	0x1484;	????	
    e6fe:	6c ff       	and.b	@r15,	r12	
    e700:	71 06       	.word	0x0671;	????	
    e702:	2f 36       	jge	$-928    	;abs 0xe362
    e704:	36 06       	.word	0x0636;	????	
    e706:	86 56 06 99 	add	r6,	-26362(r6);0x9906(r6)
    e70a:	a2 96 36 d6 	cmp	@r6,	&0xd636	
    e70e:	fb 68 1e 9c 	addc.b	@r8+,	-25570(r11);0x9c1e(r11)
    e712:	8c e9 26 77 	xor	r9,	30502(r12);0x7726(r12)
    e716:	26 94       	cmp	@r4,	r6	
    e718:	8e 16       	.word	0x168e;	????	
    e71a:	68 c5       	bic.b	@r5,	r8	
    e71c:	48 87       	sub.b	r7,	r8	
    e71e:	a8 6b d2 be 	addc	@r11,	-16686(r8);0xbed2(r8)
    e722:	87 9b 4f 76 	cmp	r11,	30287(r7);0x764f(r7)
    e726:	9b 9e ee 41 	cmp	16878(r14),-17373(r11);0x41ee(r14), 0xbc23(r11)
    e72a:	23 bc 
    e72c:	ab 16       	.word	0x16ab;	????	
    e72e:	86 ae ee 3e 	dadd	r14,	16110(r6);0x3eee(r6)
    e732:	46 9d       	cmp.b	r13,	r6	
    e734:	87 ae 46 7d 	dadd	r14,	32070(r7);0x7d46(r7)
    e738:	bb 66 5b ad 	addc	@r6+,	-21157(r11);0xad5b(r11)
    e73c:	fe fe 84 4e 	and.b	@r14+,	20100(r14);0x4e84(r14)
    e740:	98 bd ee 74 	bit	29934(r13),-20581(r8);0x74ee(r13), 0xaf9b(r8)
    e744:	9b af 
    e746:	7b 04       	.word	0x047b;	????	
    e748:	7f 0e       	.word	0x0e7f;	????	
    e74a:	d0 b3 76 9b 	bit.b	#1,	-25738(r0);r3 As==01, PC rel. 0x82c2
    e74e:	d6 b2 46 1b 	bit.b	&0x1b46,-11186(r6);0xd44e(r6)
    e752:	4e d4 
    e754:	b0 25       	jz	$+866    	;abs 0xeab6
    e756:	2e 0e       	.word	0x0e2e;	????	
    e758:	7f 84       	sub.b	@r4+,	r15	
    e75a:	ef 81 72 4c 	sub.b	@r1,	19570(r15);0x4c72(r15)
    e75e:	9f 63 8c e1 	addc	#1,	-7796(r15);r3 As==01, 0xe18c(r15)
    e762:	a4 0e       	.word	0x0ea4;	????	
    e764:	15 06       	.word	0x0615;	????	
    e766:	2b af       	dadd	@r15,	r11	
    e768:	dd bb 85 49 	bit.b	18821(r11),-27343(r13);0x4985(r11), 0x9531(r13)
    e76c:	31 95 
    e76e:	7a 39       	jl	$+758    	;abs 0xea64
    e770:	25 78       	subc	@r8,	r5	
    e772:	66 96       	cmp.b	@r6,	r6	
    e774:	36 16       	.word	0x1636;	????	
    e776:	46 76       	subc.b	r6,	r6	
    e778:	16 6b 6d a6 	addc	-22931(r11),r6	;0xa66d(r11)
    e77c:	e9 94 fa 04 	cmp.b	@r4,	1274(r9);0x04fa(r9)
    e780:	4e 84       	sub.b	r4,	r14	
    e782:	16 2e       	jc	$-978    	;abs 0xe3b0
    e784:	4c 2e       	jc	$-870    	;abs 0xe41e
    e786:	4c 77       	subc.b	r7,	r12	
    e788:	c2 26       	jz	$-634    	;abs 0xe50e
    e78a:	e7 c5 bc c3 	bic.b	@r5,	-15428(r7);0xc3bc(r7)
    e78e:	c1 44 db ec 	mov.b	r4,	-4901(r1);0xecdb(r1)
    e792:	da 27       	jz	$-74     	;abs 0xe748
    e794:	51 4c db 97 	mov.b	-26661(r12),r1	;0x97db(r12)
    e798:	7b 06       	.word	0x067b;	????	
    e79a:	68 1d       	.word	0x1d68;	????	
    e79c:	25 9b       	cmp	@r11,	r5	
    e79e:	f1 ba c6 e9 	bit.b	@r10+,	-5690(r1);0xe9c6(r1)
    e7a2:	7b 1f       	.word	0x1f7b;	????	
    e7a4:	ee f6 ec 3e 	and.b	@r6,	16108(r14);0x3eec(r14)
    e7a8:	5e 06       	.word	0x065e;	????	
    e7aa:	68 58       	add.b	@r8,	r8	
    e7ac:	82 b2 26 9a 	bit	r2,	&0x9a26	
    e7b0:	ec 26       	jz	$-550    	;abs 0xe58a
    e7b2:	b8 cc a6 2e 	bic	@r12+,	11942(r8);0x2ea6(r8)
    e7b6:	33 c4       	.word	0xc433;	????	Illegal as 2-op instr
    e7b8:	68 76       	subc.b	@r6,	r8	
    e7ba:	f7 3e       	jmp	$-528    	;abs 0xe5aa
    e7bc:	3c 7c       	subc	@r12+,	r12	
    e7be:	86 3b       	jl	$-242    	;abs 0xe6cc
    e7c0:	4e 68       	addc.b	r8,	r14	
    e7c2:	68 78       	subc.b	@r8,	r8	
    e7c4:	e6 41 56 76 	mov.b	@r1,	30294(r6);0x7656(r6)
    e7c8:	64 f9       	and.b	@r9,	r4	
    e7ca:	bb d0 40 33 	bis	#13120,	29222(r11);#0x3340, 0x7226(r11)
    e7ce:	26 72 
    e7d0:	26 84       	sub	@r4,	r6	
    e7d2:	58 2e       	jc	$-846    	;abs 0xe484
    e7d4:	0e 3e       	jmp	$-994    	;abs 0xe3f2
    e7d6:	1f df 00 f1 	bis	-3840(r15),r15	;0xf100(r15)
    e7da:	94 57 7c 11 	add	4476(r7),5729(r4);0x117c(r7), 0x1661(r4)
    e7de:	61 16 
    e7e0:	1e e1 58 4c 	xor	19544(r1),r14	;0x4c58(r1)
    e7e4:	ee 21       	jnz	$+990    	;abs 0xebc2
    e7e6:	16 71 ec 6c 	subc	27884(r1),r6	;0x6cec(r1)
    e7ea:	6c 25       	jz	$+730    	;abs 0xeac4
    e7ec:	46 0b       	.word	0x0b46;	????	
    e7ee:	ef ef 98 4c 	xor.b	@r15,	19608(r15);0x4c98(r15)
    e7f2:	26 1f       	.word	0x1f26;	????	
    e7f4:	3f bf       	bit	@r15+,	r15	
    e7f6:	36 3f       	jmp	$-402    	;abs 0xe664
    e7f8:	36 5f       	add	@r15+,	r6	
    e7fa:	86 6f 36 f8 	addc	r15,	-1994(r6);0xf836(r6)
    e7fe:	36 50 76 36 	add	#13942,	r6	;#0x3676
    e802:	36 c4       	bic	@r4+,	r6	
    e804:	50 5e 75 e2 	add.b	-7563(r14),r0	;0xe275(r14)
    e808:	c7 e4 5e 26 	xor.b	r4,	9822(r7);0x265e(r7)
    e80c:	2c 26       	jz	$-934    	;abs 0xe466
    e80e:	ac 29       	jnc	$+858    	;abs 0xeb68
    e810:	50 5e 26 d5 	add.b	-10970(r14),r0	;0xd526(r14)
    e814:	e6 26       	jz	$-562    	;abs 0xe5e2
    e816:	db 5d 3f da 	add.b	-9665(r13),-13659(r11);0xda3f(r13), 0xcaa5(r11)
    e81a:	a5 ca 
    e81c:	48 64       	addc.b	r4,	r8	
    e81e:	4f dc       	bis.b	r12,	r15	
    e820:	1d 27       	jz	$-452    	;abs 0xe65c
    e822:	2e 50       	add	@r0,	r14	
    e824:	5e 5e 5e 40 	add.b	16478(r14),r14	;0x405e(r14)
    e828:	50 6f 37 f8 	addc.b	-1993(r15),r0	;0xf837(r15)
    e82c:	3f 38       	jl	$+128    	;abs 0xe8ac
    e82e:	5f 86 bf 37 	sub.b	14271(r6),r15	;0x37bf(r6)
    e832:	1f 37       	jge	$-448    	;abs 0xe672
    e834:	37 16       	.word	0x1637;	????	
    e836:	fe af 56 d4 	dadd.b	@r15+,	-11178(r14);0xd456(r14)
    e83a:	9a 9a 03 e4 	cmp	-7165(r10),-4140(r10);0xe403(r10), 0xefd4(r10)
    e83e:	d4 ef 
    e840:	68 cd       	bic.b	@r13,	r8	
    e842:	f0 ac 16 86 	dadd.b	@r12+,	-31210(r0);PC rel. 0x6e5a
    e846:	68 f1       	and.b	@r1,	r8	
    e848:	f1 9c c5 61 	cmp.b	@r12+,	25029(r1);0x61c5(r1)
    e84c:	81 39       	jl	$+772    	;abs 0xeb50
    e84e:	36 94       	cmp	@r4+,	r6	
    e850:	c7 21       	jnz	$+912    	;abs 0xebe0
    e852:	4c b4       	bit.b	r4,	r12	
    e854:	c0 76 21 ec 	subc.b	r6,	-5087(r0);PC rel. 0xd477
    e858:	f1 9c 3c cc 	cmp.b	@r12+,	-13252(r1);0xcc3c(r1)
    e85c:	58 58 4b df 	add.b	-8373(r8),r8	;0xdf4b(r8)
    e860:	98 7c bb e6 	subc	-6469(r12),803(r8)	;0xe6bb(r12), 0x0323(r8)
    e864:	23 03 
    e866:	d8 f9 ee fe 	and.b	-274(r9),17211(r8);0xfeee(r9), 0x433b(r8)
    e86a:	3b 43 
    e86c:	7f 47       	mov.b	@r7+,	r15	
    e86e:	62 72       	subc.b	#4,	r2	;r2 As==10
    e870:	84 78 87 ef 	subc	r8,	-4217(r4);0xef87(r4)
    e874:	4f 77       	subc.b	r7,	r15	
    e876:	64 bb       	bit.b	@r11,	r4	
    e878:	fc 33       	jn	$-6      	;abs 0xe872
    e87a:	bf 86 66 56 	sub	@r6+,	22118(r15);0x5666(r15)
    e87e:	26 46       	mov	@r6,	r6	
    e880:	96 84 ab df 	sub	-8277(r4),-24441(r6);0xdfab(r4), 0xa087(r6)
    e884:	87 a0 

0000e882 <rom_25c_ex>:
    e882:	ab df 87 a0 	bis	@r15,	-24441(r11);0xa087(r11)
    e886:	84 2a       	jnc	$-758    	;abs 0xe590
    e888:	61 63       	addc.b	#2,	r1	;r3 As==10
    e88a:	e2 82 88 8a 	sub.b	#4,	&0x8a88	;r2 As==10
    e88e:	2a 26       	jz	$-938    	;abs 0xe4e4
    e890:	88 8c 22 a2 	sub	r12,	-24030(r8);0xa222(r8)
    e894:	28 a2       	dadd	#4,	r8	;r2 As==10
    e896:	96 19       	.word	0x1996;	????	
    e898:	b4 22       	jnz	$-662    	;abs 0xe602
    e89a:	2e e0       	xor	@r0,	r14	
    e89c:	42 8a       	sub.b	r10,	r2	
    e89e:	a3 aa       	dadd	@r10,	#1	;r3 As==01
    e8a0:	00 32       	jn	$-1022   	;abs 0xe4a2
    e8a2:	02 00       	.word	0x0002;	????	
    e8a4:	40 c0       	bic.b	r0,	r0	
    e8a6:	03 33       	jn	$-504    	;abs 0xe6ae
    e8a8:	b0 03       	.word	0x03b0;	????	
    e8aa:	aa 08       	.word	0x08aa;	????	
    e8ac:	28 a1       	dadd	@r1,	r8	
    e8ae:	8c 0a       	.word	0x0a8c;	????	
    e8b0:	2e 88       	sub	@r8,	r14	
    e8b2:	2a 03       	.word	0x032a;	????	
    e8b4:	6a ea       	xor.b	@r10,	r10	
    e8b6:	82 72 2c e1 	subc	r2,	&0xe12c	
    e8ba:	aa 2a       	jnc	$-682    	;abs 0xe610
    e8bc:	b8 82 42 20 	sub	#8,	8258(r8);r2 As==11, 0x2042(r8)
    e8c0:	22 0a       	.word	0x0a22;	????	
    e8c2:	24 82       	sub	#4,	r4	;r2 As==10
    e8c4:	06 02       	.word	0x0206;	????	
    e8c6:	aa ab 5a a0 	dadd	@r11,	-24486(r10);0xa05a(r10)
    e8ca:	ba 02       	.word	0x02ba;	????	
    e8cc:	82 00       	.word	0x0082;	????	
    e8ce:	00 2a       	jnc	$-1022   	;abs 0xe4d0
    e8d0:	00 02       	.word	0x0200;	????	
    e8d2:	ef 1e       	.word	0x1eef;	????	
    e8d4:	04 91       	cmp	r1,	r4	
    e8d6:	ba ec 82 2e 	xor	@r12+,	11906(r10);0x2e82(r10)
    e8da:	3e c0 24 a3 	bic	#-23772,r14	;#0xa324
    e8de:	ba c3 14 14 	bic	#-1,	5140(r10);r3 As==11, 0x1414(r10)
    e8e2:	68 a0       	dadd.b	@r0,	r8	
    e8e4:	a9 ca 8c 73 	bic	@r10,	29580(r9);0x738c(r9)
    e8e8:	00 a3       	dadc	r0		
    e8ea:	be bb 90 2a 	bit	@r11+,	10896(r14);0x2a90(r14)
    e8ee:	0f 01       	.word	0x010f;	????	
    e8f0:	44 00       	.word	0x0044;	????	
    e8f2:	a0 1e       	.word	0x1ea0;	????	
    e8f4:	04 d0       	bis	r0,	r4	
    e8f6:	c3 aa       	dadd.b	r10,	#1	;r3 As==01
    e8f8:	ca c0 0c e2 	bic.b	r0,	-7668(r10);0xe20c(r10)
    e8fc:	10 c8 08 28 	bic	10248(r8),r0	;0x2808(r8)
    e900:	a0 2a       	jnc	$-702    	;abs 0xe642
    e902:	ff ff 0c c3 	and.b	@r15+,	-15604(r15);0xc30c(r15)
    e906:	af a2 02 e0 	dadd	#4,	-8190(r15);r2 As==10, 0xe002(r15)
    e90a:	70 ae       	dadd.b	@r14+,	r0	
    e90c:	6e aa       	dadd.b	@r10,	r14	
    e90e:	aa 8e 22 40 	sub	@r14,	16418(r10);0x4022(r10)
    e912:	28 22       	jnz	$-942    	;abs 0xe564
    e914:	08 e8       	xor	r8,	r8	
    e916:	22 a4       	dadd	@r4,	r2	
    e918:	08 ac       	dadd	r12,	r8	
    e91a:	4a aa       	dadd.b	r10,	r10	
    e91c:	a8 30       	jn	$+338    	;abs 0xea6e
    e91e:	c0 00       	.word	0x00c0;	????	
    e920:	2a 90       	cmp	@r0,	r10	
    e922:	3a 8e       	sub	@r14+,	r10	
    e924:	ee a4 7b 82 	dadd.b	@r4,	-32133(r14);0x827b(r14)
    e928:	9a ba 9a 2a 	bit	10906(r10),-32759(r10);0x2a9a(r10), 0x8009(r10)
    e92c:	09 80 
    e92e:	0a ec       	xor	r12,	r10	
    e930:	bb ea 28 20 	xor	@r10+,	8232(r11);0x2028(r11)
    e934:	79 62       	addc.b	#8,	r9	;r2 As==11
    e936:	ae bb 8e 08 	bit	@r11,	2190(r14);0x088e(r14)
    e93a:	ae d0 39 e0 	bis	@r0,	-8135(r14);0xe039(r14)
    e93e:	e3 ea       	xor.b	@r10,	#1	;r3 As==01
    e940:	2a 22       	jnz	$-938    	;abs 0xe596
    e942:	ff ff ff ff 	and.b	@r15+,	-1(r15)	;0xffff(r15)
    e946:	ff eb 2c 28 	xor.b	@r11+,	10284(r15);0x282c(r15)
    e94a:	9b 22       	jnz	$-712    	;abs 0xe682
    e94c:	b2 4a 10 ec 	mov	@r10+,	&0xec10	
    e950:	81 02       	.word	0x0281;	????	
    e952:	80 03       	.word	0x0380;	????	
    e954:	a8 2a       	jnc	$-686    	;abs 0xe6a6
    e956:	0a 8c       	sub	r12,	r10	
    e958:	96 8e 08 e3 	sub	-7416(r14),-23640(r6);0xe308(r14), 0xa3a8(r6)
    e95c:	a8 a3 
    e95e:	22 08       	.word	0x0822;	????	
    e960:	98 cb 18 43 	bic	17176(r11),-32436(r8);0x4318(r11), 0x814c(r8)
    e964:	4c 81 
    e966:	82 82 ca 98 	sub	r2,	&0x98ca	
    e96a:	8c ae c3 b0 	dadd	r14,	-20285(r12);0xb0c3(r12)
    e96e:	cc 0c       	.word	0x0ccc;	????	
    e970:	14 2c       	jc	$+42     	;abs 0xe99a
    e972:	e3 08       	.word	0x08e3;	????	
    e974:	93 45 53 aa 	mov	-21933(r5),#1	;0xaa53(r5), r3 As==01
    e978:	91 00       	.word	0x0091;	????	
    e97a:	01 04       	.word	0x0401;	????	
    e97c:	c6 4c 41 a2 	mov.b	r12,	-23999(r6);0xa241(r6)
    e980:	02 02       	.word	0x0202;	????	
    e982:	ff 3c       	jmp	$+512    	;abs 0xeb82
    e984:	fc ff cc bf 	and.b	@r15+,	-16436(r12);0xbfcc(r12)
    e988:	fe c3 cc ff 	bic.b	#-1,	-52(r14);r3 As==11, 0xffcc(r14)
    e98c:	ff eb 0a 08 	xor.b	@r11+,	2058(r15);0x080a(r15)
    e990:	61 01       	.word	0x0161;	????	
    e992:	85 81 9a 46 	sub	r1,	18074(r5);0x469a(r5)
    e996:	49 eb       	xor.b	r11,	r9	
    e998:	02 68       	addc	r8,	r2	
    e99a:	eb 0a       	.word	0x0aeb;	????	
    e99c:	b8 2a       	jnc	$-654    	;abs 0xe70e
    e99e:	13 3b       	jl	$-472    	;abs 0xe7c6
    e9a0:	d2 d0 00 30 	bis.b	12288(r0),&0xc08b	;PC rel. 0x19a2
    e9a4:	8b c0 
    e9a6:	04 84       	sub	r4,	r4	
    e9a8:	d0 e4 48 43 	xor.b	17224(r4),1068(r0);0x4348(r4), PC rel. 0xedd8
    e9ac:	2c 04 
    e9ae:	04 41       	mov	r1,	r4	
    e9b0:	10 4a 82 09 	br	2434(r10)	;0x0982(r10)
    e9b4:	0e 34       	jge	$+30     	;abs 0xe9d2
    e9b6:	b2 0c       	.word	0x0cb2;	????	
    e9b8:	0e 1c       	.word	0x1c0e;	????	
    e9ba:	80 0a       	.word	0x0a80;	????	
    e9bc:	1a 0b       	.word	0x0b1a;	????	
    e9be:	00 c0       	bic	r0,	r0	
    e9c0:	c8 0c       	.word	0x0cc8;	????	
    e9c2:	ff ff cf ff 	and.b	@r15+,	-49(r15);0xffcf(r15)
    e9c6:	ff ff cf 0a 	and.b	@r15+,	2767(r15);0x0acf(r15)
    e9ca:	02 00       	.word	0x0002;	????	
    e9cc:	80 aa ae ae 	dadd	r10,	-20818(r0);PC rel. 0x987c
    e9d0:	a2 32       	jn	$-698    	;abs 0xe716
    e9d2:	82 ab 03 c8 	dadd	r11,	&0xc803	
    e9d6:	08 00       	.word	0x0008;	????	
    e9d8:	00 00       	.word	0x0000;	????	
    e9da:	80 b4 40 3b 	bit	r4,	15168(r0);PC rel. 0x251c
    e9de:	40 10       	rrc.b	r0		
    e9e0:	ac 8c 14 0a 	sub	@r12,	2580(r12);0x0a14(r12)
    e9e4:	74 0c       	.word	0x0c74;	????	
    e9e6:	13 44       	.word	0x4413;	????	Illegal as 2-op instr
    e9e8:	96 11 2a 20 	sxt	8234(r6)	;0x202a(r6)
    e9ec:	08 80       	sub	r0,	r8	
    e9ee:	3b 45       	mov	@r5+,	r11	
    e9f0:	45 ea       	xor.b	r10,	r5	
    e9f2:	2d a1       	dadd	@r1,	r13	
    e9f4:	ac c4 e4 29 	bic	@r4,	10724(r12);0x29e4(r12)
    e9f8:	2c 22       	jnz	$-934    	;abs 0xe652
    e9fa:	16 2c       	jc	$+46     	;abs 0xea28
    e9fc:	02 b3       	bit	#0,	r2	;r3 As==00
    e9fe:	2a 51       	add	@r1,	r10	
    ea00:	23 a0       	.word	0xa023;	????	Illegal as 2-op instr
    ea02:	eb 68 ae 13 	addc.b	@r8,	5038(r11);0x13ae(r11)
    ea06:	51 14       	.word	0x1451;	????	
    ea08:	55 a5 ae 08 	dadd.b	2222(r5),r5	;0x08ae(r5)
    ea0c:	8a 12       	call	r10		
    ea0e:	72 8d       	sub.b	@r13+,	r2	
    ea10:	ae ab ab ae 	dadd	@r11,	-20821(r14);0xaeab(r14)
    ea14:	7e 55       	add.b	@r5+,	r14	
    ea16:	14 45 51 21 	mov	8529(r5),r4	;0x2151(r5)
    ea1a:	ca 00       	.word	0x00ca;	????	
    ea1c:	00 00       	.word	0x0000;	????	
    ea1e:	ae 00       	.word	0x00ae;	????	
    ea20:	b0 ea 00 00 	xor	@r10+,	0(r0)	;PC rel. 0xea22
    ea24:	c3 a9       	dadd.b	r9,	#1	;r3 As==01
    ea26:	ab ba 06 28 	bit	@r10,	10246(r11);0x2806(r11)
    ea2a:	ae ae aa aa 	dadd	@r14,	-21846(r14);0xaaaa(r14)
    ea2e:	0a 38       	jl	$+22     	;abs 0xea44
    ea30:	ac e8 82 8a 	xor	@r8,	-30078(r12);0x8a82(r12)
    ea34:	ae a2 8a 0a 	dadd	#4,	2698(r14);r2 As==10, 0x0a8a(r14)
    ea38:	cc e8 aa 68 	xor.b	r8,	26794(r12);0x68aa(r12)
    ea3c:	a8 2a       	jnc	$-686    	;abs 0xe78e
    ea3e:	00 c0       	bic	r0,	r0	
    ea40:	ae 2b       	jnc	$-162    	;abs 0xe99e
    ea42:	56 81 60 58 	sub.b	22624(r1),r6	;0x5860(r1)
    ea46:	55 91 aa ba 	cmp.b	-17750(r1),r5	;0xbaaa(r1)
    ea4a:	ae b9 02 9e 	bit	@r9,	-25086(r14);0x9e02(r14)
    ea4e:	ae 8e ba 2e 	sub	@r14,	11962(r14);0x2eba(r14)
    ea52:	e8 8a e8 22 	sub.b	@r10,	8936(r8);0x22e8(r8)
    ea56:	a8 8c ae aa 	sub	@r12,	-21842(r8);0xaaae(r8)
    ea5a:	a7 9a ae 66 	cmp	@r10,	26286(r7);0x66ae(r7)
    ea5e:	12 11 50 65 	rra	&0x6550	
    ea62:	96 0c       	.word	0x0c96;	????	
    ea64:	aa 96 82 51 	cmp	@r6,	20866(r10);0x5182(r10)
    ea68:	08 ce       	bic	r14,	r8	
    ea6a:	a6 16       	.word	0x16a6;	????	
    ea6c:	45 40       	mov.b	r0,	r5	
    ea6e:	94 c2 aa 8e 	bic	&0x8eaa,-22357(r4);0xa8ab(r4)
    ea72:	ab a8 
    ea74:	ab ba 89 a6 	bit	@r10,	-22903(r11);0xa689(r11)
    ea78:	0e ae       	dadd	r14,	r14	
    ea7a:	ac ae ca 80 	dadd	@r14,	-32566(r12);0x80ca(r12)
    ea7e:	ae c0 00 00 	bic	@r0,	0(r14)	;0x0000(r14)

0000ea82 <key_map_33c>:
    ea82:	00 d3       	bis	#0,	r0	;r3 As==00
    ea84:	43 63       	adc.b	#0		;r3 As==00
    ea86:	00 34       	jge	$+2      	;abs 0xea88
    ea88:	94 73 00 d2 	subc	#1,	-11776(r4);r3 As==01, 0xd200(r4)
    ea8c:	42 62       	rlc.b	r2		
    ea8e:	00 33       	jn	$-510    	;abs 0xe890
    ea90:	93 73       	subc	#1,	#1	;r3 As==01, r3 As==01
    ea92:	00 32       	jn	$-1022   	;abs 0xe694
    ea94:	92 72 00 00 	subc	&0x0000,&0xa2a3	
    ea98:	a3 a2 
    ea9a:	00 00       	.word	0x0000;	????	
    ea9c:	00 00       	.word	0x0000;	????	
    ea9e:	00 71       	subc	r1,	r0	
    eaa0:	91 a1 00 31 	dadd	12544(r1),48(r1)	;0x3100(r1), 0x0030(r1)
    eaa4:	30 00 
    eaa6:	00 d0       	bis	r0,	r0	
    eaa8:	40 60       	rlc.b	r0		
    eaaa:	00 70       	subc	r0,	r0	
    eaac:	90 a0 00 d1 	dadd	-12032(r0),24897(r0);PC rel. 0xbbae, PC rel. 0x4bf1
    eab0:	41 61 

0000eab2 <rom_33c>:
    eab2:	6d 02       	.word	0x026d;	????	
    eab4:	cc 06       	.word	0x06cc;	????	
    eab6:	bc 84 dd 02 	sub	@r4+,	733(r12);0x02dd(r12)
    eaba:	46 c2       	bic.b	r2,	r6	
    eabc:	7f ba       	bit.b	@r10+,	r15	
    eabe:	04 9b       	cmp	r11,	r4	
    eac0:	7a 9a       	cmp.b	@r10+,	r10	
    eac2:	13 7b       	.word	0x7b13;	????	Illegal as 2-op instr
    eac4:	84 5a 17 46 	add	r10,	17943(r4);0x4617(r4)
    eac8:	1b 41 99 42 	mov	17049(r1),r11	;0x4299(r1)
    eacc:	b1 af 84 06 	dadd	@r15+,	1668(r1);0x0684(r1)
    ead0:	7f 68       	addc.b	@r8+,	r15	
    ead2:	bd 40 65 28 	mov	#10341,	-27742(r13);#0x2865, 0x93a2(r13)
    ead6:	a2 93 
    ead8:	93 2b       	jnc	$-216    	;abs 0xea00
    eada:	6d 00       	.word	0x006d;	????	
    eadc:	82 5a 0e 15 	add	r10,	&0x150e	
    eae0:	3a 57       	add	@r7+,	r10	
    eae2:	7f 0e       	.word	0x0e7f;	????	
    eae4:	1b 49 37 7b 	mov	31543(r9),r11	;0x7b37(r9)
    eae8:	68 25       	jz	$+722    	;abs 0xedba
    eaea:	2e 84       	sub	@r4,	r14	
    eaec:	63 9f       	.word	0x9f63;	????	Illegal as 2-op instr
    eaee:	8c 3f       	jmp	$-230    	;abs 0xea08
    eaf0:	a4 06       	.word	0x06a4;	????	
    eaf2:	44 cf       	bic.b	r15,	r4	
    eaf4:	3f 4e       	mov	@r14+,	r15	
    eaf6:	98 43 29 13 	mov	#1,	4905(r8);r3 As==01, 0x1329(r8)
    eafa:	74 ee       	xor.b	@r14+,	r4	
    eafc:	44 7b       	subc.b	r11,	r4	
    eafe:	ee 84 16 41 	sub.b	@r4,	16662(r14);0x4116(r14)
    eb02:	52 57 42 36 	add.b	13890(r7),r2	;0x3642(r7)
    eb06:	41 52       	add.b	r2,	r1	
    eb08:	5b d4 12 84 	bis.b	-31726(r4),r11	;0x8412(r4)
    eb0c:	62 72       	subc.b	#4,	r2	;r2 As==10
    eb0e:	84 2e       	jc	$-758    	;abs 0xe818
    eb10:	2b bd       	bit	@r13,	r11	
    eb12:	40 66       	addc.b	r6,	r0	
    eb14:	bd 40 82 5a 	mov	#23170,	12392(r13);#0x5a82, 0x3068(r13)
    eb18:	68 30 
    eb1a:	0e 3d       	jmp	$+542    	;abs 0xed38
    eb1c:	8c 6d a4 8b 	addc	r13,	-29788(r12);0x8ba4(r12)
    eb20:	03 04       	.word	0x0403;	????	
    eb22:	45 7f       	subc.b	r15,	r5	
    eb24:	ce 1e       	.word	0x1ece;	????	
    eb26:	9b 76 78 78 	subc	30840(r6),30598(r11);0x7878(r6), 0x7786(r11)
    eb2a:	86 77 
    eb2c:	4e 64       	addc.b	r4,	r14	
    eb2e:	3b 21       	jnz	$+632    	;abs 0xeda6
    eb30:	6f 3b       	jl	$-288    	;abs 0xea10
    eb32:	43 83       	.word	0x8343;	????	Illegal as 2-op instr
    eb34:	97 ce 20 76 	bic	30240(r14),7835(r7);0x7620(r14), 0x1e9b(r7)
    eb38:	9b 1e 
    eb3a:	06 26       	jz	$-1010   	;abs 0xe748
    eb3c:	24 3b       	jl	$-438    	;abs 0xe986
    eb3e:	bc 06       	.word	0x06bc;	????	
    eb40:	6c a3       	dadd.b	#2,	r12	;r3 As==10
    eb42:	ee 70 82 98 	subc.b	@r0,	-26494(r14);0x9882(r14)
    eb46:	26 d7       	bis	@r7,	r6	
    eb48:	26 ac       	dadd	@r12,	r6	
    eb4a:	9a 30       	jn	$+310    	;abs 0xec80
    eb4c:	7f 0e       	.word	0x0e7f;	????	
    eb4e:	6a 6a       	addc.b	@r10,	r10	
    eb50:	7a 7a       	subc.b	@r10+,	r10	
    eb52:	c3 28       	jnc	$+392    	;abs 0xecda
    eb54:	26 25       	jz	$+590    	;abs 0xeda2
    eb56:	bd 29       	jnc	$+892    	;abs 0xeed2
    eb58:	26 3d       	jmp	$+590    	;abs 0xeda6
    eb5a:	c3 2b       	jnc	$-120    	;abs 0xeae2
    eb5c:	f6 6b b6 2b 	addc.b	@r11+,	11190(r6);0x2bb6(r6)
    eb60:	a8 9a 9a 03 	cmp	@r10,	922(r8)	;0x039a(r8)
    eb64:	e4 d4 2d 4e 	bis.b	@r4,	20013(r4);0x4e2d(r4)
    eb68:	57 cd 2e ac 	bic.b	-21458(r13),r7	;0xac2e(r13)
    eb6c:	16 86 7f d1 	sub	-11905(r6),r6	;0xd17f(r6)
    eb70:	31 43       	mov	#-1,	r1	;r3 As==11
    eb72:	84 44 6c c2 	mov	r4,	-15764(r4);0xc26c(r4)
    eb76:	9b d0 30 71 	bis	28976(r0),18369(r11);PC rel. 0x5ca8, 0x47c1(r11)
    eb7a:	c1 47 
    eb7c:	33 ac       	.word	0xac33;	????	Illegal as 2-op instr
    eb7e:	bc 30       	jn	$+378    	;abs 0xecf8
    eb80:	dc 40 5a 06 	mov.b	1626(r0),-10971(r12);PC rel. 0xf1dc, 0xd525(r12)
    eb84:	25 d5 
    eb86:	cc 1e       	.word	0x1ecc;	????	
    eb88:	3e 5e       	add	@r14+,	r14	
    eb8a:	5e 66 3e 47 	addc.b	18238(r6),r14	;0x473e(r6)
    eb8e:	2e 5b       	add	@r11,	r14	
    eb90:	e0 9d 5b 63 	cmp.b	@r13,	25435(r0);PC rel. 0x4eed
    eb94:	cf d8 39 f6 	bis.b	r8,	-2503(r15);0xf639(r15)
    eb98:	fe 23       	jnz	$-2      	;abs 0xeb96
    eb9a:	46 16       	.word	0x1646;	????	
    eb9c:	af 56 fe f4 	add	@r6,	-2818(r15);0xf4fe(r15)
    eba0:	78 e6       	xor.b	@r6+,	r8	
    eba2:	ee 56 76 64 	add.b	@r6,	25718(r14);0x6476(r14)
    eba6:	f9 bb 3b 40 	bit.b	@r11+,	16443(r9);0x403b(r9)
    ebaa:	26 3e       	jmp	$-946    	;abs 0xe7f8
    ebac:	84 4e 30 28 	mov	r14,	10288(r4);0x2830(r4)
    ebb0:	16 82 57 6d 	sub	&0x6d57,r6	
    ebb4:	01 46       	mov	r6,	r1	
    ebb6:	9e 44 29 45 	mov	17705(r4),-19511(r14);0x4529(r4), 0xb3c9(r14)
    ebba:	c9 b3 
    ebbc:	d9 b5 49 b7 	bit.b	-18615(r5),-18407(r9);0xb749(r5), 0xb819(r9)
    ebc0:	19 b8 
    ebc2:	cf 76 2f 84 	subc.b	r6,	-31697(r15);0x842f(r15)
    ebc6:	6f 66       	addc.b	@r6,	r15	
    ebc8:	66 86       	sub.b	@r6,	r6	
    ebca:	66 56       	add.b	@r6,	r6	
    ebcc:	26 46       	mov	@r6,	r6	
    ebce:	96 16       	.word	0x1696;	????	
    ebd0:	16 66 7f 84 	addc	-31617(r6),r6	;0x847f(r6)
    ebd4:	46 7f       	subc.b	r15,	r6	
    ebd6:	46 56       	rla.b	r6		
    ebd8:	20 06       	.word	0x0620;	????	
    ebda:	0d 5a       	add	r10,	r13	
    ebdc:	25 3e       	jmp	$-948    	;abs 0xe828
    ebde:	ef 3e       	jmp	$-544    	;abs 0xe9be
    ebe0:	81 6b 3e a2 	addc	r11,	-24002(r1);0xa23e(r1)
    ebe4:	3e 61       	addc	@r1+,	r14	
    ebe6:	ab 4c af 76 	mov	@r12,	30383(r11);0x76af(r11)
    ebea:	24 3e       	jmp	$-950    	;abs 0xe834
    ebec:	3e 1e       	.word	0x1e3e;	????	
    ebee:	9c 4a e9 26 	mov	9961(r10),9847(r12);0x26e9(r10), 0x2677(r12)
    ebf2:	77 26 
    ebf4:	94 3b       	jl	$-214    	;abs 0xeb1e
    ebf6:	16 68 0d c9 	addc	-14067(r8),r6	;0xc90d(r8)
    ebfa:	7f e9       	xor.b	@r9+,	r15	
    ebfc:	94 49 04 4e 	mov	19972(r9),15208(r4);0x4e04(r9), 0x3b68(r4)
    ec00:	68 3b 
    ec02:	e9 68 3e 26 	addc.b	@r8,	9790(r9);0x263e(r9)
    ec06:	ef 3e       	jmp	$-544    	;abs 0xe9e6
    ec08:	46 26       	jz	$-882    	;abs 0xe896
    ec0a:	0d 5a       	add	r10,	r13	
    ec0c:	0d 3a       	jl	$-996    	;abs 0xe828
    ec0e:	45 2b       	jnc	$-372    	;abs 0xea9a
    ec10:	44 7c       	subc.b	r12,	r4	
    ec12:	c2 86 5e 4e 	sub.b	r6,	&0x4e5e	
    ec16:	76 ff       	and.b	@r15+,	r6	
    ec18:	3e 64       	addc	@r4+,	r14	
    ec1a:	84 7b ee ba 	subc	r11,	-17682(r4);0xbaee(r4)
    ec1e:	63 d4       	.word	0xd463;	????	Illegal as 2-op instr
    ec20:	5a a3       	dadd.b	#1,	r10	;r3 As==01
    ec22:	ba 60 45 06 	addc	#1605,	-31653(r10);#0x0645, 0x845b(r10)
    ec26:	5b 84 
    ec28:	41 dc       	bis.b	r12,	r1	
    ec2a:	5f 9e 42 b1 	cmp.b	-20158(r14),r15	;0xb142(r14)
    ec2e:	45 5f       	add.b	r15,	r5	
    ec30:	44 6d       	addc.b	r13,	r4	
    ec32:	00 ee       	xor	r14,	r0	
    ec34:	9b 81 43 bc 	sub	-17341(r1),5730(r11);0xbc43(r1), 0x1662(r11)
    ec38:	62 16 
    ec3a:	86 ab 47 84 	dadd	r11,	-31673(r6);0x8447(r6)
    ec3e:	26 71       	subc	@r1,	r6	
    ec40:	71 71       	subc.b	@r1+,	r1	
    ec42:	26 93       	cmp	#2,	r6	;r3 As==10
    ec44:	7b 86       	sub.b	@r6+,	r11	
    ec46:	92 4e 9d 99 	mov	-26211(r14),&0x2685	;0x999d(r14)
    ec4a:	85 26 
    ec4c:	73 26       	jz	$-792    	;abs 0xe934
    ec4e:	76 87       	sub.b	@r7+,	r6	
    ec50:	64 da       	bis.b	@r10,	r4	
    ec52:	5d 93       	cmp.b	#1,	r13	;r3 As==01
    ec54:	46 29       	jnc	$+654    	;abs 0xeee2
    ec56:	78 9e       	cmp.b	@r14+,	r8	
    ec58:	46 7e       	subc.b	r14,	r6	
    ec5a:	44 fe       	and.b	r14,	r4	
    ec5c:	d9 75 49 6d 	subc.b	27977(r5),28697(r9);0x6d49(r5), 0x7019(r9)
    ec60:	19 70 
    ec62:	e9 72 69 73 	subc.b	#4,	29545(r9);r2 As==10, 0x7369(r9)
    ec66:	74 84       	sub.b	@r4+,	r4	
    ec68:	2f d1       	bis	@r1,	r15	
    ec6a:	06 86       	sub	r6,	r6	
    ec6c:	56 36       	jge	$-850    	;abs 0xe91a
    ec6e:	16 76 6f 84 	subc	-31633(r6),r6	;0x846f(r6)
    ec72:	ef d1 36 06 	bis.b	@r1,	1590(r15);0x0636(r15)
    ec76:	86 46 df 84 	mov	r6,	-31521(r6);0x84df(r6)
    ec7a:	9f d1 d1 3f 	bis	16337(r1),-28796(r15);0x3fd1(r1), 0x8f84(r15)
    ec7e:	84 8f 
    ec80:	d1 2f       	jc	$-92     	;abs 0xec24
    ec82:	84 36       	jge	$-758    	;abs 0xe98c
    ec84:	36 84       	sub	@r4+,	r6	
    ec86:	df 36       	jge	$-576    	;abs 0xea46
    ec88:	16 06       	.word	0x0616;	????	
    ec8a:	16 76 96 86 	subc	-31082(r6),r6	;0x8696(r6)
    ec8e:	06 46       	mov	r6,	r6	
    ec90:	36 4f       	mov	@r15+,	r6	
    ec92:	84 4f 66 96 	mov	r15,	-27034(r4);0x9666(r4)
    ec96:	36 16       	.word	0x1636;	????	
    ec98:	46 76       	subc.b	r6,	r6	
    ec9a:	16 86 06 56 	sub	22022(r6),r6	;0x5606(r6)
    ec9e:	66 7f       	subc.b	@r15,	r6	
    eca0:	84 46 7f 26 	mov	r6,	9855(r4);0x267f(r4)
    eca4:	36 06       	.word	0x0636;	????	
    eca6:	26 56       	add	@r6,	r6	
    eca8:	86 56 06 96 	add	r6,	-27130(r6);0x9606(r6)
    ecac:	26 96       	cmp	@r6,	r6	
    ecae:	96 46 7f 84 	mov	-31617(r6),-16769(r6);0x847f(r6), 0xbe7f(r6)
    ecb2:	7f be 
    ecb4:	95 dc 99 0d 	bis	3481(r12),-17574(r5);0x0d99(r12), 0xbb5a(r5)
    ecb8:	5a bb 
    ecba:	a1 7b 06 e5 	subc	@r11,	-6906(r1);0xe506(r1)
    ecbe:	bb a5 e9 1c 	dadd	@r5+,	7401(r11);0x1ce9(r11)
    ecc2:	af 64 94 11 	addc	@r4,	4500(r15);0x1194(r15)
    ecc6:	14 47 1a ee 	mov	-4582(r7),r4	;0xee1a(r7)
    ecca:	78 14       	.word	0x1478;	????	
    eccc:	1e 44 54 42 	mov	16980(r4),r14	;0x4254(r4)
    ecd0:	24 76       	subc	@r6,	r4	
    ecd2:	ee 9c 20 c2 	cmp.b	@r12,	-15840(r14);0xc220(r14)
    ecd6:	42 4e       	mov.b	r14,	r2	
    ecd8:	76 94       	cmp.b	@r4+,	r6	
    ecda:	17 2c       	jc	$+48     	;abs 0xed0a
    ecdc:	94 54 30 16 	add	5680(r4),14966(r4);0x1630(r4), 0x3a76(r4)
    ece0:	76 3a 
    ece2:	59 8b 7c 64 	sub.b	25724(r11),r9	;0x647c(r11)
    ece6:	16 14       	.word	0x1416;	????	
    ece8:	76 19       	.word	0x1976;	????	
    ecea:	9c 74 3e 1d 	subc	7486(r4),-4446(r12);0x1d3e(r4), 0xeea2(r12)
    ecee:	a2 ee 
    ecf0:	3e 41       	pop	r14		
    ecf2:	4e 98       	cmp.b	r8,	r14	
    ecf4:	40 dc       	bis.b	r12,	r0	
    ecf6:	8e 29       	jnc	$+798    	;abs 0xf014
    ecf8:	a6 46 c6 0d 	mov	@r6,	3526(r6);0x0dc6(r6)
    ecfc:	bc 04       	.word	0x04bc;	????	
    ecfe:	77 93       	cmp.b	#-1,	r7	;r3 As==11
    ed00:	ac a5 3f 65 	dadd	@r5,	25919(r12);0x653f(r12)
    ed04:	af 0d       	.word	0x0daf;	????	
    ed06:	30 6d       	addc	@r13+,	r0	
    ed08:	00 a7       	dadd	r7,	r0	
    ed0a:	40 82       	sub.b	r2,	r0	
    ed0c:	d5 98 b2 26 	cmp.b	9906(r8),285(r5)	;0x26b2(r8), 0x011d(r5)
    ed10:	1d 01 
    ed12:	d4 97 26 0d 	cmp.b	3366(r7),18010(r4);0x0d26(r7), 0x465a(r4)
    ed16:	5a 46 
    ed18:	55 a7 40 82 	dadd.b	-32192(r7),r5	;0x8240(r7)
    ed1c:	1e d2 97 6b 	bis	&0x6b97,r14	
    ed20:	93 77 d5 a0 	subc	-24363(r7),#1	;0xa0d5(r7), r3 As==01
    ed24:	d3 9f 24 2c 	cmp.b	11300(r15),#1	;0x2c24(r15), r3 As==01
    ed28:	5c 5c 64 bc 	add.b	-17308(r12),r12	;0xbc64(r12)
    ed2c:	9f 41 44 3e 	mov	15940(r1),16050(r15);0x3e44(r1), 0x3eb2(r15)
    ed30:	b2 3e 
    ed32:	07 d3       	bis	#0,	r7	;r3 As==00
    ed34:	9b 16       	.word	0x169b;	????	
    ed36:	5c 2e       	jc	$-838    	;abs 0xe9f0
    ed38:	90 d5 a2 46 	bis	18082(r5),3407(r0);0x46a2(r5), PC rel. 0xfa8b
    ed3c:	4f 0d 
    ed3e:	bc 43 0d 68 	mov	#-1,	26637(r12);r3 As==11, 0x680d(r12)
    ed42:	db a4 9c 24 	dadd.b	9372(r4),3651(r11);0x249c(r4), 0x0e43(r11)
    ed46:	43 0e 
    ed48:	71 0d       	.word	0x0d71;	????	
    ed4a:	bc 94 bb 92 	cmp	@r4+,	-27973(r12);0x92bb(r12)
    ed4e:	9e 3e       	jmp	$-706    	;abs 0xea8c
    ed50:	0d 1d       	.word	0x1d0d;	????	
    ed52:	ef 26       	jz	$-544    	;abs 0xeb32
    ed54:	8e b2 a9 8e 	bit	r2,	-29015(r14);0x8ea9(r14)
    ed58:	26 3e       	jmp	$-946    	;abs 0xe9a6
    ed5a:	ba aa ae 21 	dadd	@r10+,	8622(r10);0x21ae(r10)
    ed5e:	64 76       	subc.b	@r6,	r4	
    ed60:	5b ab 7f d0 	dadd.b	-12161(r11),r11	;0xd07f(r11)
    ed64:	af 75 26 24 	subc	@r5,	9254(r15);0x2426(r15)
    ed68:	0d 44       	mov	r4,	r13	
    ed6a:	0d 57       	add	r7,	r13	
    ed6c:	45 4f       	mov.b	r15,	r5	
    ed6e:	6b 64       	addc.b	@r4,	r11	
    ed70:	b4 3e       	jmp	$-662    	;abs 0xeada
    ed72:	1d ef 3e 0d 	xor	3390(r15),r13	;0x0d3e(r15)
    ed76:	70 53       	add.b	#-1,	r0	;r3 As==11
    ed78:	74 9b       	cmp.b	@r11+,	r4	
    ed7a:	2b b1       	bit	@r1,	r11	
    ed7c:	84 66 b9 44 	addc	r6,	17593(r4);0x44b9(r4)
    ed80:	cb 3f       	jmp	$-104    	;abs 0xed18
    ed82:	cb cf 56 1f 	bic.b	r15,	8022(r11);0x1f56(r11)
    ed86:	86 4f 84 bf 	mov	r15,	-16508(r6);0xbf84(r6)
    ed8a:	cb cf 96 6f 	bic.b	r15,	28566(r11);0x6f96(r11)
    ed8e:	84 1f       	.word	0x1f84;	????	
    ed90:	cb df 84 5f 	bis.b	r15,	24452(r11);0x5f84(r11)
    ed94:	cb 3f       	jmp	$-104    	;abs 0xed2c
    ed96:	84 7b 7b 0d 	subc	r11,	3451(r4);0x0d7b(r4)
    ed9a:	70 42       	br	#8		;r2 As==11
    ed9c:	1d 22       	jnz	$-964    	;abs 0xe9d8
    ed9e:	0d fb       	and	r11,	r13	
    eda0:	26 1d       	.word	0x1d26;	????	
    eda2:	22 7b       	subc	@r11,	r2	
    eda4:	7b 0d       	.word	0x0d7b;	????	
    eda6:	68 42       	mov.b	#4,	r8	;r2 As==10
    eda8:	3d ee       	xor	@r14+,	r13	
    edaa:	ec a2 62 72 	dadd.b	#4,	29282(r12);r2 As==10, 0x7262(r12)
    edae:	bd d0 bc c0 	bis	#-16196,-24207(r13);#0xc0bc, 0xa171(r13)
    edb2:	71 a1 
    edb4:	44 0d       	.word	0x0d44;	????	
    edb6:	68 0d       	.word	0x0d68;	????	
    edb8:	09 b3       	bit	#0,	r9	;r3 As==00
    edba:	9b d1 de c4 	bis	-15138(r1),29314(r11);0xc4de(r1), 0x7282(r11)
    edbe:	82 72 
    edc0:	b2 46 06 0e 	mov	@r6+,	&0x0e06	
    edc4:	2d bc       	bit	@r12,	r13	
    edc6:	c7 41 d7 c7 	mov.b	r1,	-14377(r7);0xc7d7(r7)
    edca:	a7 c7 a3 71 	bic	@r7,	29091(r7);0x71a3(r7)
    edce:	43 7f       	.word	0x7f43;	????	Illegal as 2-op instr
    edd0:	ba e5 56 67 	xor	@r5+,	26454(r10);0x6756(r10)
    edd4:	e7 ea 46 1e 	xor.b	@r10,	7750(r7);0x1e46(r7)
    edd8:	3e ee       	xor	@r14+,	r14	
    edda:	68 a1       	dadd.b	@r1,	r8	
    eddc:	36 16       	.word	0x1636;	????	
    edde:	26 0d       	.word	0x0d26;	????	
    ede0:	bc 42 26 0d 	mov	#8,	3366(r12);r2 As==11, 0x0d26(r12)
    ede4:	4f 9b       	cmp.b	r11,	r15	
    ede6:	0d d5       	bis	r5,	r13	
    ede8:	3e 16       	.word	0x163e;	????	
    edea:	72 26       	jz	$-794    	;abs 0xead0
    edec:	0d 6a       	addc	r10,	r13	
    edee:	da e7 16 9c 	xor.b	-25578(r7),9338(r10);0x9c16(r7), 0x247a(r10)
    edf2:	7a 24 
    edf4:	d6 c1 16 82 	bic.b	-32234(r1),-19906(r6);0x8216(r1), 0xb23e(r6)
    edf8:	3e b2 
    edfa:	3e 0d       	.word	0x0d3e;	????	
    edfc:	52 5d 31 16 	add.b	5681(r13),r2	;0x1631(r13)
    ee00:	26 72       	subc	#4,	r6	;r2 As==10
    ee02:	0d 2e       	jc	$-996    	;abs 0xea1e
    ee04:	82 b2 52 13 	bit	r2,	&0x1352	
    ee08:	d5 16       	.word	0x16d5;	????	
    ee0a:	84 1e       	.word	0x1e84;	????	
    ee0c:	b6 d9 90 d6 	bis	@r9+,	-10608(r6);0xd690(r6)
    ee10:	e6 26       	jz	$-562    	;abs 0xebde
    ee12:	67 d9       	bis.b	@r9,	r7	
    ee14:	e3 46       	mov.b	@r6,	#1	;r3 As==01
    ee16:	66 ee       	xor.b	@r14,	r6	
    ee18:	26 56       	add	@r6,	r6	
    ee1a:	46 2d       	jc	$+654    	;abs 0xf0a8
    ee1c:	c7 3e       	jmp	$-624    	;abs 0xebac
    ee1e:	ee 5e fe 3e 	add.b	@r14,	16126(r14);0x3efe(r14)
    ee22:	a7 df eb 3e 	bis	@r15,	16107(r7);0x3eeb(r7)
    ee26:	26 8e       	sub	@r14,	r6	
    ee28:	26 3e       	jmp	$-946    	;abs 0xea76
    ee2a:	46 0d       	.word	0x0d46;	????	
    ee2c:	bc 04       	.word	0x04bc;	????	
    ee2e:	77 e0 eb 4e 	xor.b	#20203,	r7	;#0x4eeb
    ee32:	44 c5       	bic.b	r5,	r4	
    ee34:	e3 7b       	subc.b	@r11,	#1	;r3 As==01
    ee36:	7b 0d       	.word	0x0d7b;	????	
    ee38:	70 e5       	xor.b	@r5+,	r0	
    ee3a:	e3 1e       	.word	0x1ee3;	????	
    ee3c:	f6 86 0d c9 	sub.b	@r6+,	-14067(r6);0xc90d(r6)
    ee40:	d5 95 82 b2 	cmp.b	-19838(r5),9732(r5);0xb282(r5), 0x2604(r5)
    ee44:	04 26 
    ee46:	6d 00       	.word	0x006d;	????	
    ee48:	bb d6 16 65 	bis	@r6+,	25878(r11);0x6516(r11)
    ee4c:	40 56       	add.b	r6,	r0	
    ee4e:	0d 8d       	sub	r13,	r13	
    ee50:	e3 7f       	subc.b	@r15,	#1	;r3 As==01
    ee52:	42 52       	rla.b	r2		
    ee54:	47 7b       	subc.b	r11,	r7	
    ee56:	bb eb 7c 64 	xor	@r11+,	25724(r11);0x647c(r11)
    ee5a:	6b e8       	xor.b	@r8,	r11	
    ee5c:	52 6b 42 46 	addc.b	17986(r11),r2	;0x4642(r11)
    ee60:	7c fe       	and.b	@r14+,	r12	
    ee62:	bd 26       	jz	$-644    	;abs 0xebde
    ee64:	42 78       	subc.b	r8,	r2	
    ee66:	2c 42       	mov	#4,	r12	;r2 As==10
    ee68:	f6 f6 94 b6 	and.b	@r6+,	-18796(r6);0xb694(r6)
    ee6c:	04 4e       	mov	r14,	r4	
    ee6e:	26 1e       	.word	0x1e26;	????	
    ee70:	e6 b1 42 7c 	bit.b	@r1,	31810(r6);0x7c42(r6)
    ee74:	42 16       	.word	0x1642;	????	
    ee76:	76 64       	addc.b	@r4+,	r6	
    ee78:	6b ef       	xor.b	@r15,	r11	
    ee7a:	3e 52       	add	#8,	r14	;r2 As==11
    ee7c:	0d 70       	subc	r0,	r13	
    ee7e:	04 d0       	bis	r0,	r4	
    ee80:	7b e9       	xor.b	@r9+,	r11	
    ee82:	db f3 42 43 	and.b	#1,	17218(r11);r3 As==01, 0x4342(r11)
    ee86:	2f 3e       	jmp	$-928    	;abs 0xeae6
    ee88:	1d 03       	.word	0x031d;	????	
    ee8a:	3e db       	bis	@r11+,	r14	
    ee8c:	4e 98       	cmp.b	r8,	r14	
    ee8e:	da ee 40 bd 	xor.b	-17088(r14),29914(r10);0xbd40(r14), 0x74da(r10)
    ee92:	da 74 
    ee94:	d5 a5 f9 a1 	dadd.b	-24071(r5),-23676(r5);0xa1f9(r5), 0xa384(r5)
    ee98:	84 a3 
    ee9a:	84 ee 7b db 	xor	r14,	-9349(r4);0xdb7b(r4)
    ee9e:	fa 84 7f 46 	sub.b	@r4+,	18047(r10);0x467f(r10)
    eea2:	76 86       	sub.b	@r6+,	r6	
    eea4:	56 36       	jge	$-850    	;abs 0xeb52
    eea6:	96 86 16 66 	sub	26134(r6),13878(r6);0x6616(r6), 0x3636(r6)
    eeaa:	36 36 
    eeac:	96 76 56 7f 	subc	32598(r6),-5500(r6);0x7f56(r6), 0xea84(r6)
    eeb0:	84 ea 
    eeb2:	d1 61 a1 82 	addc.b	-32095(r1),11782(r1);0x82a1(r1), 0x2e06(r1)
    eeb6:	06 2e 
    eeb8:	62 26       	jz	$-826    	;abs 0xeb7e
    eeba:	06 0e       	.word	0x0e06;	????	
    eebc:	25 bc       	bit	@r12,	r5	
    eebe:	04 71       	subc	r1,	r4	
    eec0:	a5 04       	.word	0x04a5;	????	
    eec2:	41 44       	mov.b	r4,	r1	
    eec4:	3e c5       	bic	@r5+,	r14	
    eec6:	16 e7 06 26 	xor	9734(r7),r6	;0x2606(r7)
    eeca:	2e fe       	and	@r14,	r14	
    eecc:	e6 1d       	.word	0x1de6;	????	
    eece:	22 3e       	jmp	$-954    	;abs 0xeb14
    eed0:	9b da 09 9b 	bis	-25847(r10),31525(r11);0x9b09(r10), 0x7b25(r11)
    eed4:	25 7b 
    eed6:	ee 3e       	jmp	$-546    	;abs 0xecb4
    eed8:	42 52       	rla.b	r2		
    eeda:	5e 5e 5e fe 	add.b	-418(r14),r14	;0xfe5e(r14)
    eede:	3e da       	bis	@r10+,	r14	
    eee0:	0f 1d       	.word	0x1d0f;	????	
    eee2:	6b 46       	mov.b	@r6,	r11	
    eee4:	3e 52       	add	#8,	r14	;r2 As==11
    eee6:	5e 76 c7 0e 	subc.b	3783(r6),r14	;0x0ec7(r6)
    eeea:	ee fe 3e 86 	and.b	@r14,	-31170(r14);0x863e(r14)
    eeee:	47 4e       	mov.b	r14,	r7	
    eef0:	3e 52       	add	#8,	r14	;r2 As==11
    eef2:	3e c7       	bic	@r7+,	r14	
    eef4:	18 db 18 76 	bis	30232(r11),r8	;0x7618(r11)
    eef8:	62 a7       	dadd.b	@r7,	r2	
    eefa:	14 a3       	dadd	#1,	r4	;r3 As==01
    eefc:	45 13       	.word	0x1345;	????	
    eefe:	41 3b       	jl	$-380    	;abs 0xed82
    ef00:	43 3b       	jl	$-376    	;abs 0xed88
    ef02:	a1 67 12 77 	addc	@r7,	30482(r1);0x7712(r1)
    ef06:	15 73       	subc	#1,	r5	;r3 As==01
    ef08:	3b 71       	subc	@r1+,	r11	
    ef0a:	3b 3d       	jmp	$+632    	;abs 0xf182
    ef0c:	ee 26       	jz	$-546    	;abs 0xecea
    ef0e:	16 86 3d e3 	sub	-7363(r6),r6	;0xe33d(r6)
    ef12:	67 7b       	subc.b	@r11,	r7	
    ef14:	da 1a       	.word	0x1ada;	????	
    ef16:	86 5c 4e 0d 	add	r12,	3406(r6);0x0d4e(r6)
    ef1a:	bc 04       	.word	0x04bc;	????	
    ef1c:	c5 1d       	.word	0x1dc5;	????	
    ef1e:	3e 52       	add	#8,	r14	;r2 As==11
    ef20:	3e 0d       	.word	0x0d3e;	????	
    ef22:	70 42       	br	#8		;r2 As==11
    ef24:	3d ee       	xor	@r14+,	r13	
    ef26:	0d 4e       	mov	r14,	r13	
    ef28:	9b 42 52 7b 	mov	&0x7b52,30362(r11);0x769a(r11)
    ef2c:	9a 76 
    ef2e:	9c 46 06 68 	mov	26630(r6),-14067(r12);0x6806(r6), 0xc90d(r12)
    ef32:	0d c9 
    ef34:	95 7f 52 a5 	subc	-23214(r15),-10426(r5);0xa552(r15), 0xd746(r5)
    ef38:	46 d7 
    ef3a:	20 3e       	jmp	$-958    	;abs 0xeb7c
    ef3c:	72 5d       	add.b	@r13+,	r2	
    ef3e:	4f b2       	bit.b	r2,	r15	
    ef40:	72 16       	.word	0x1672;	????	
    ef42:	0d 2e       	jc	$-996    	;abs 0xeb5e
    ef44:	47 25       	jz	$+656    	;abs 0xf1d4
    ef46:	ac 6d 00 64 	addc	@r13,	25600(r12);0x6400(r12)
    ef4a:	69 20       	jnz	$+212    	;abs 0xf01e
    ef4c:	7b 97       	cmp.b	@r7+,	r11	
    ef4e:	46 3e       	jmp	$-882    	;abs 0xebdc
    ef50:	1d 03       	.word	0x031d;	????	
    ef52:	3e 1d       	.word	0x1d3e;	????	
    ef54:	61 6b       	addc.b	@r11,	r1	
    ef56:	27 3e       	jmp	$-944    	;abs 0xeba6
    ef58:	42 ee       	xor.b	r14,	r2	
    ef5a:	ee 46 7f 16 	mov.b	@r6,	5759(r14);0x167f(r14)
    ef5e:	42 af       	dadd.b	r15,	r2	
    ef60:	66 ba       	bit.b	@r10,	r6	
    ef62:	e9 e9 94 b0 	xor.b	@r9,	-20332(r9);0xb094(r9)
    ef66:	04 42       	mov	r2,	r4	
    ef68:	26 8e       	sub	@r14,	r6	
    ef6a:	4e 42       	mov.b	r2,	r14	
    ef6c:	1e 2c       	jc	$+62     	;abs 0xefaa
    ef6e:	98 b2 26 75 	bit	&0x7526,-17114(r8);0xbd26(r8)
    ef72:	26 bd 
    ef74:	32 9c       	cmp	@r12+,	r2	
    ef76:	04 ee       	xor	r14,	r4	
    ef78:	ba 7b 9c c7 	subc	@r11+,	-14436(r10);0xc79c(r10)
    ef7c:	44 42       	mov.b	r2,	r4	
    ef7e:	26 96       	cmp	@r6,	r6	
    ef80:	52 a5 34 a3 	dadd.b	-23756(r5),r2	;0xa334(r5)
    ef84:	16 b6 43 0d 	bit	3395(r6),r6	;0x0d43(r6)
    ef88:	70 67       	addc.b	@r7+,	r0	
    ef8a:	20 16       	.word	0x1620;	????	
    ef8c:	26 bd       	bit	@r13,	r6	
    ef8e:	f5 36       	jge	$-532    	;abs 0xed7a
    ef90:	1a 26       	jz	$-970    	;abs 0xebc6
    ef92:	0d 52       	add	r2,	r13	
    ef94:	5d 31       	jn	$+700    	;abs 0xf250
    ef96:	3e 16       	.word	0x163e;	????	
    ef98:	d7 40 72 26 	mov.b	9842(r0),27149(r7);PC rel. 0x160c, 0x6a0d(r7)
    ef9c:	0d 6a 
    ef9e:	26 42       	mov	#4,	r6	;r2 As==10
    efa0:	63 b2       	.word	0xb263;	????	Illegal as 2-op instr
    efa2:	52 26       	jz	$-858    	;abs 0xec48
    efa4:	5d 4d 82 b2 	mov.b	-19838(r13),r13	;0xb282(r13)
    efa8:	72 24       	jz	$+230    	;abs 0xf08e
    efaa:	1e 26       	jz	$-962    	;abs 0xebe8
    efac:	42 0d       	.word	0x0d42;	????	
    efae:	4e 0d       	.word	0x0d4e;	????	
    efb0:	30 00       	.word	0x0030;	????	
    efb2:	54 2b       	jnc	$-342    	;abs 0xee5c
    efb4:	52 26       	jz	$-858    	;abs 0xec5a
    efb6:	8b 26       	jz	$-744    	;abs 0xecce
    efb8:	1e 26       	jz	$-962    	;abs 0xebf6
    efba:	0d 70       	subc	r0,	r13	
    efbc:	44 54       	rla.b	r4		
    efbe:	4d 80       	sub.b	r0,	r13	
    efc0:	46 65       	addc.b	r5,	r6	
    efc2:	45 9e       	cmp.b	r14,	r5	
    efc4:	42 b1       	bit.b	r1,	r2	
    efc6:	44 6d       	addc.b	r13,	r4	
    efc8:	00 d7       	bis	r7,	r0	
    efca:	1f 46 29 65 	mov	25897(r6),r15	;0x6529(r6)
    efce:	48 16       	.word	0x1648;	????	
    efd0:	0d 8d       	sub	r13,	r13	
    efd2:	0c d7       	bis	r7,	r12	
    efd4:	1f 3e       	jmp	$-960    	;abs 0xec14
    efd6:	16 72 0d 2e 	subc	&0x2e0d,r6	
    efda:	4f b2       	bit.b	r2,	r15	
    efdc:	72 4d       	mov.b	@r13+,	r2	
    efde:	92 00       	.word	0x0092;	????	
    efe0:	00 00       	.word	0x0000;	????	
    efe2:	00 0e       	.word	0x0e00;	????	
    efe4:	3b 7f       	subc	@r15+,	r11	
    efe6:	36 5b       	add	@r11+,	r6	
    efe8:	43 36       	jge	$-888    	;abs 0xec70
    efea:	3d e9       	xor	@r9+,	r13	
    efec:	68 3e       	jmp	$-814    	;abs 0xecbe
    efee:	74 3a       	jl	$-790    	;abs 0xecd8
    eff0:	0d 57       	add	r7,	r13	
    eff2:	0e 0d       	.word	0x0d0e;	????	
    eff4:	d5 36       	jge	$-596    	;abs 0xeda0
    eff6:	9b 48 36 3a 	mov	14902(r8),-17564(r11);0x3a36(r8), 0xbb64(r11)
    effa:	64 bb 
    effc:	51 36       	jge	$-860    	;abs 0xeca0
    effe:	40 0d       	.word	0x0d40;	????	
    f000:	30 77       	subc	@r7+,	r0	
    f002:	54 ac 0d 06 	dadd.b	1549(r12),r4	;0x060d(r12)
    f006:	3e 43       	mov	#-1,	r14	;r3 As==11
    f008:	9c 3e       	jmp	$-710    	;abs 0xed42
    f00a:	84 9f 2d ee 	cmp	r15,	-4563(r4);0xee2d(r4)
    f00e:	9f 06       	.word	0x069f;	????	
    f010:	25 3e       	jmp	$-948    	;abs 0xec5c
    f012:	3d ee       	xor	@r14+,	r13	
    f014:	3e 2d       	jc	$+638    	;abs 0xf292
    f016:	e5 9f 3e 6e 	cmp.b	@r15,	28222(r5);0x6e3e(r5)
    f01a:	15 51 f9 d9 	add	-9735(r1),r5	;0xd9f9(r1)
    f01e:	5a 84 b5 5e 	sub.b	24245(r4),r10	;0x5eb5(r4)
    f022:	7f 33       	jn	$-256    	;abs 0xef22
    f024:	7b 7b       	subc.b	@r11+,	r11	
    f026:	da 67 64 bb 	addc.b	-17564(r7),13918(r10);0xbb64(r7), 0x365e(r10)
    f02a:	5e 36 
    f02c:	84 9b 76 46 	cmp	r11,	18038(r4);0x4676(r4)
    f030:	35 87       	sub	@r7+,	r5	
    f032:	63 74       	.word	0x7463;	????	Illegal as 2-op instr
    f034:	9b 61 f3 89 	addc	-30221(r1),-3212(r11);0x89f3(r1), 0xf374(r11)
    f038:	74 f3 
    f03a:	64 64       	addc.b	@r4,	r4	
    f03c:	f3 2e       	jc	$-536    	;abs 0xee24
    f03e:	36 9a       	cmp	@r10+,	r6	
    f040:	06 f1       	and	r1,	r6	
    f042:	74 99       	cmp.b	@r9+,	r4	
    f044:	65 74       	subc.b	@r4,	r5	
    f046:	f1 76 56 3e 	subc.b	@r6+,	15958(r1);0x3e56(r1)
    f04a:	0d 57       	add	r7,	r13	
    f04c:	0d cc       	bic	r12,	r13	
    f04e:	b2 5e 7d 0d 	add	@r14+,	&0x0d7d	
    f052:	5a ad cc cc 	dadd.b	-13108(r13),r10	;0xcccc(r13)
    f056:	46 9c       	cmp.b	r12,	r6	
    f058:	33 35       	jge	$+616    	;abs 0xf2c0
    f05a:	6c 9a       	cmp.b	@r10,	r12	
    f05c:	aa ba ca da 	bit	@r10,	-9526(r10);0xdaca(r10)
    f060:	ea fa 8e 2a 	and.b	@r10,	10894(r10);0x2a8e(r10)
    f064:	cd ef 33 37 	xor.b	r15,	14131(r13);0x3733(r13)
    f068:	b8 0e       	.word	0x0eb8;	????	
    f06a:	52 2e       	jc	$-858    	;abs 0xed10
    f06c:	32 22       	jnz	$-922    	;abs 0xecd2
    f06e:	f3 f5       	and.b	@r5+,	#1	;r3 As==01
    f070:	6f 43       	mov.b	#2,	r15	;r3 As==10
    f072:	5f 66 9b c2 	addc.b	-15717(r6),r15	;0xc29b(r6)
    f076:	32 6d       	addc	@r13+,	r2	
    f078:	1a 45 e3 67 	mov	26595(r5),r10	;0x67e3(r5)
    f07c:	76 77       	subc.b	@r7+,	r6	
    f07e:	75 e5       	xor.b	@r5+,	r5	
    f080:	bb 20       	jnz	$+376    	;abs 0xf1f8
    f082:	21 71       	subc	@r1,	r1	
    f084:	f9 20       	jnz	$+500    	;abs 0xf278
    f086:	7d 1b       	.word	0x1b7d;	????	
    f088:	85 73 d4 85 	sbc	-31276(r5)	;0x85d4(r5)
    f08c:	78 a5       	dadd.b	@r5+,	r8	
    f08e:	f1 77 e3 cd 	subc.b	@r7+,	-12829(r1);0xcde3(r1)
    f092:	a5 b5 d5 ba 	bit	@r5,	-17707(r5);0xbad5(r5)
    f096:	a1 7d e2 d8 	subc	@r13,	-10014(r1);0xd8e2(r1)
    f09a:	7b ef       	xor.b	@r15+,	r11	
    f09c:	b8 96 6f f9 	cmp	@r6+,	-1681(r8);0xf96f(r8)
    f0a0:	f9 6d df f9 	addc.b	@r13+,	-1569(r9);0xf9df(r9)
    f0a4:	61 29       	jnc	$+708    	;abs 0xf368
    f0a6:	f9 59 59 89 	add.b	@r9+,	-30375(r9);0x8959(r9)
    f0aa:	87 5a 06 2b 	add	r10,	11014(r7);0x2b06(r7)
    f0ae:	66 43       	mov.b	#2,	r6	;r3 As==10
    f0b0:	84 00       	.word	0x0084;	????	
    f0b2:	12 e6 32 12 	xor	4658(r6),r2	;0x1232(r6)
    f0b6:	02 42       	mov	r2,	r2	
    f0b8:	36 62       	addc	#8,	r6	;r2 As==11
    f0ba:	36 9c       	cmp	@r12+,	r6	
    f0bc:	8e 7f 28 2a 	subc	r15,	10792(r14);0x2a28(r14)
    f0c0:	46 20       	jnz	$+142    	;abs 0xf14e
    f0c2:	ed 00       	.word	0x00ed;	????	
    f0c4:	0d 06       	.word	0x060d;	????	
    f0c6:	42 b7       	bit.b	r7,	r2	
    f0c8:	86 23       	jnz	$-242    	;abs 0xefd6
    f0ca:	13 12       	push	#1		;r3 As==01
    f0cc:	c3 3a       	jl	$-632    	;abs 0xee54
    f0ce:	38 25       	jz	$+626    	;abs 0xf340
    f0d0:	af 13       	.word	0x13af;	????	
    f0d2:	b3 33       	jn	$-152    	;abs 0xf03a
    f0d4:	37 ae       	dadd	@r14+,	r7	
    f0d6:	8d fa 32 22 	and	r10,	8754(r13);0x2232(r13)
    f0da:	f3 f5       	and.b	@r5+,	#1	;r3 As==01
    f0dc:	8a 13       	.word	0x138a;	????	
    f0de:	33 37       	jge	$-408    	;abs 0xef46
    f0e0:	8c b7 8d b3 	bit	r7,	-19571(r12);0xb38d(r12)
    f0e4:	1a b7 ae f5 	bit	-2642(r7),r10	;0xf5ae(r7)
    f0e8:	c0 2b       	jnc	$-126    	;abs 0xf06a
    f0ea:	7d 0a       	.word	0x0a7d;	????	
    f0ec:	25 8f       	sub	@r15,	r5	
    f0ee:	17 92 8e 9f 	cmp	&0x9f8e,r7	
    f0f2:	c2 78 47 1f 	subc.b	r8,	&0x1f47	
    f0f6:	78 58       	add.b	@r8+,	r8	
    f0f8:	49 8a       	sub.b	r10,	r9	
    f0fa:	84 8e 78 9f 	sub	r14,	-24712(r4);0x9f78(r4)
    f0fe:	06 47       	mov	r7,	r6	
    f100:	25 96       	cmp	@r6,	r5	
    f102:	15 86 21 c3 	sub	-15583(r6),r5	;0xc321(r6)
    f106:	f2 db 9d 3e 	bis.b	@r11+,	&0x3e9d	
    f10a:	54 3e       	jmp	$-854    	;abs 0xedb4
    f10c:	23 e1       	.word	0xe123;	????	Illegal as 2-op instr
    f10e:	f2 bb 9d c2 	bit.b	@r11+,	&0xc29d	
    f112:	8f 99 8e 9f 	cmp	r9,	-24690(r15);0x9f8e(r15)
    f116:	98 68 1f 98 	addc	-26593(r8),-3446(r8);0x981f(r8), 0xf28a(r8)
    f11a:	8a f2 
    f11c:	74 11       	rra.b	@r4+		
    f11e:	f2 bb 9c 33 	bit.b	@r11+,	&0x339c	
    f122:	35 9d       	cmp	@r13+,	r5	
    f124:	3e f2       	and	#8,	r14	;r2 As==11
    f126:	16 2b       	jnc	$-466    	;abs 0xef54
    f128:	8f 76 74 2b 	subc	r6,	11124(r15);0x2b74(r15)
    f12c:	9d 6f 44 91 	addc	-28348(r15),-23333(r13);0x9144(r15), 0xa4db(r13)
    f130:	db a4 
    f132:	3e 0e       	.word	0x0e3e;	????	
    f134:	32 22       	jnz	$-922    	;abs 0xed9a
    f136:	33 37       	jge	$-408    	;abs 0xef9e
    f138:	8a f3 f5 a1 	and	#0,	-24075(r10);r3 As==00, 0xa1f5(r10)
    f13c:	32 45       	mov	@r5+,	r2	
    f13e:	b8 26       	jz	$-654    	;abs 0xeeb0
    f140:	f2 16       	.word	0x16f2;	????	
    f142:	98 c8 98 8d 	bic	-29288(r8),-32224(r8);0x8d98(r8), 0x8220(r8)
    f146:	20 82 
    f148:	9d a9 96 42 	dadd	17046(r9),21588(r13);0x4296(r9), 0x5454(r13)
    f14c:	54 54 
    f14e:	9b 9a 26 84 	cmp	-31706(r10),15931(r11);0x8426(r10), 0x3e3b(r11)
    f152:	3b 3e 
    f154:	f2 bb ae 96 	bit.b	@r11+,	&0x96ae	
    f158:	16 8f 76 74 	sub	29814(r15),r6	;0x7476(r15)
    f15c:	9b aa 42 bb 	dadd	-17598(r10),-25683(r11);0xbb42(r10), 0x9bad(r11)
    f160:	ad 9b 
    f162:	ee ee 64 64 	xor.b	@r14,	25700(r14);0x6464(r14)
    f166:	ad 10       	swpb	@r13		
    f168:	64 10       	rrc.b	@r4		
    f16a:	3e bc       	bit	@r12+,	r14	
    f16c:	38 b1       	bit	@r1+,	r8	
    f16e:	f2 74 f2 bb 	subc.b	@r4+,	&0xbbf2	
    f172:	b3 c5       	bic	@r5+,	#1	;r3 As==01
    f174:	b1 f5 96 16 	and	@r5+,	5782(r1);0x1696(r1)
    f178:	98 22       	jnz	$-718    	;abs 0xeeaa
    f17a:	16 38       	jl	$+46     	;abs 0xf1a8
    f17c:	cd 30       	jn	$+412    	;abs 0xf318
    f17e:	8e bf d8 b4 	bit	r15,	-19240(r14);0xb4d8(r14)
    f182:	ef b8 96 2a 	bit.b	@r8,	10902(r15);0x2a96(r15)
    f186:	cd ef 75 c6 	xor.b	r15,	-14731(r13);0xc675(r13)
    f18a:	2b 1f       	.word	0x1f2b;	????	
    f18c:	71 71       	subc.b	@r1+,	r1	
    f18e:	71 8e       	sub.b	@r14+,	r1	
    f190:	21 22       	jnz	$-956    	;abs 0xedd4
    f192:	8a c3 1c 42 	bic	#0,	16924(r10);r3 As==00, 0x421c(r10)
    f196:	91 1a       	.word	0x1a91;	????	
    f198:	cf 9d c3 1a 	cmp.b	r13,	6851(r15);0x1ac3(r15)
    f19c:	1f e7 5f e7 	xor	-6305(r7),r15	;0xe75f(r7)
    f1a0:	8f 60 7d 1b 	addc	r0,	7037(r15);0x1b7d(r15)
    f1a4:	8e 1f       	.word	0x1f8e;	????	
    f1a6:	f9 f9 f9 84 	and.b	@r9+,	-31495(r9);0x84f9(r9)
    f1aa:	dd 08       	.word	0x08dd;	????	
    f1ac:	8a c3 54 00 	bic	#0,	84(r10)	;r3 As==00, 0x0054(r10)
    f1b0:	00 00       	.word	0x0000;	????	
    f1b2:	32 8e       	sub	@r14+,	r2	
    f1b4:	8f d5 c1 0a 	bis	r5,	2753(r15);0x0ac1(r15)
    f1b8:	41 44       	mov.b	r4,	r1	
    f1ba:	d3 04       	.word	0x04d3;	????	
    f1bc:	43 63       	adc.b	#0		;r3 As==00
    f1be:	73 83       	.word	0x8373;	????	Illegal as 2-op instr
    f1c0:	a3 d3       	bis	#2,	#1	;r3 As==10, r3 As==01
    f1c2:	e3 84       	sub.b	@r4,	#1	;r3 As==01
    f1c4:	a6 b6 8f 47 	bit	@r6,	18319(r6);0x478f(r6)
    f1c8:	c6 78 65 c6 	subc.b	r8,	-14747(r6);0xc665(r6)
    f1cc:	78 0a       	.word	0x0a78;	????	
    f1ce:	33 37       	jge	$-408    	;abs 0xf036
    f1d0:	a8 6d c9 0a 	addc	@r13,	2761(r8);0x0ac9(r8)
    f1d4:	25 0a       	.word	0x0a25;	????	
    f1d6:	61 41       	mov.b	@r1,	r1	
    f1d8:	41 d1       	bis.b	r1,	r1	
    f1da:	8a 6d 26 0a 	addc	r13,	2598(r10);0x0a26(r10)
    f1de:	71 81       	sub.b	@r1+,	r1	
    f1e0:	26 00       	.word	0x0026;	????	
    f1e2:	21 23       	jnz	$-444    	;abs 0xf026
    f1e4:	54 4b 47 9a 	mov.b	-26041(r11),r4	;0x9a47(r11)
    f1e8:	67 97       	cmp.b	@r7,	r7	
    f1ea:	f6 0a       	.word	0x0af6;	????	
    f1ec:	61 06       	.word	0x0661;	????	
    f1ee:	27 56       	add	@r6,	r7	
    f1f0:	06 1b       	.word	0x1b06;	????	
    f1f2:	12 b4 d6 a5 	bit	-23082(r4),r2	;0xa5d6(r4)
    f1f6:	7b 7b       	subc.b	@r11+,	r11	
    f1f8:	7b 7b       	subc.b	@r11+,	r11	
    f1fa:	5b c5 e2 47 	bic.b	18402(r5),r11	;0x47e2(r5)
    f1fe:	d4 67 cf e6 	addc.b	-6449(r7),2617(r4);0xe6cf(r7), 0x0a39(r4)
    f202:	39 0a 
    f204:	a1 26       	jz	$-700    	;abs 0xef48
    f206:	47 ca       	bic.b	r10,	r7	
    f208:	67 d6       	bis.b	@r6,	r7	
    f20a:	d6 39       	jl	$+942    	;abs 0xf5b8
    f20c:	f6 b6 1b 7b 	bit.b	@r6+,	31515(r6);0x7b1b(r6)
    f210:	e1 7b 7b cd 	subc.b	@r11,	-12933(r1);0xcd7b(r1)
    f214:	cf a5 46 d6 	dadd.b	r5,	-10682(r15);0xd646(r15)
    f218:	f6 14       	.word	0x14f6;	????	
    f21a:	d6 f9 47 db 	and.b	-9401(r9),26981(r6);0xdb47(r9), 0x6965(r6)
    f21e:	65 69 
    f220:	d6 9c 65 68 	cmp.b	26725(r12),17770(r6);0x6865(r12), 0x456a(r6)
    f224:	6a 45 
    f226:	df 67 de 75 	addc.b	30174(r7),-31266(r15);0x75de(r7), 0x85de(r15)
    f22a:	de 85 
    f22c:	68 e6       	xor.b	@r6,	r8	
    f22e:	d6 1b       	.word	0x1bd6;	????	
    f230:	67 6d       	addc.b	@r13,	r7	
    f232:	0a 26       	jz	$-1002   	;abs 0xee48
    f234:	45 e2       	xor.b	r2,	r5	
    f236:	67 e2       	xor.b	#4,	r7	;r2 As==10
    f238:	77 e2       	xor.b	#8,	r7	;r2 As==11
    f23a:	96 f6 1b d6 	and	-10725(r6),5318(r6);0xd61b(r6), 0x14c6(r6)
    f23e:	c6 14 
    f240:	a6 14       	.word	0x14a6;	????	
    f242:	82 d8 e7 f2 	bis	r8,	&0xf2e7	
    f246:	47 e6       	xor.b	r6,	r7	
    f248:	65 e6       	xor.b	@r6,	r5	
    f24a:	f6 a6 1b 86 	dadd.b	@r6+,	-31205(r6);0x861b(r6)
    f24e:	d6 14       	.word	0x14d6;	????	
    f250:	d6 99 7b 5d 	cmp.b	23931(r9),-23201(r6);0x5d7b(r9), 0xa55f(r6)
    f254:	5f a5 
    f256:	47 45       	mov.b	r5,	r7	
    f258:	eb 67 eb 75 	addc.b	@r7,	30187(r11);0x75eb(r11)
    f25c:	eb 85 ec a6 	sub.b	@r5,	-22804(r11);0xa6ec(r11)
    f260:	b6 84 0a 71 	sub	@r4+,	28938(r6);0x710a(r6)
    f264:	f9 84 45 f0 	sub.b	@r4+,	-4027(r9);0xf045(r9)
    f268:	65 f0       	and.b	@r0,	r5	
    f26a:	77 f0 87 f0 	and.b	#-3961,	r7	;#0xf087
    f26e:	a5 f0 0a 81 	and	@r0,	-32502(r5);0x810a(r5)
    f272:	26 a6       	dadd	@r6,	r6	
    f274:	a6 14       	.word	0x14a6;	????	
    f276:	75 f2       	and.b	#8,	r5	;r2 As==11
    f278:	d5 ba 71 e2 	bit.b	-7567(r10),-17735(r5);0xe271(r10), 0xbab9(r5)
    f27c:	b9 ba 
    f27e:	fb 7b d1 7b 	subc.b	@r11+,	31697(r11);0x7bd1(r11)
    f282:	7b 7b       	subc.b	@r11+,	r11	
    f284:	d5 a5 45 7b 	dadd.b	31557(r5),-14499(r5);0x7b45(r5), 0xc75d(r5)
    f288:	5d c7 
    f28a:	47 f7       	and.b	r7,	r7	
    f28c:	c6 b6 14 0a 	bit.b	r6,	2580(r6);0x0a14(r6)
    f290:	71 06       	.word	0x0671;	????	
    f292:	a6 61 8f 21 	addc	@r1,	8591(r6);0x218f(r6)
    f296:	71 21       	jnz	$+740    	;abs 0xf57a
    f298:	27 47       	mov	@r7,	r7	
    f29a:	fb 67 e7 86 	addc.b	@r7+,	-31001(r11);0x86e7(r11)
    f29e:	89 0a       	.word	0x0a89;	????	
    f2a0:	06 b6       	bit	r6,	r6	
    f2a2:	81 e1 47 fe 	xor	r1,	-441(r1);0xfe47(r1)
    f2a6:	65 fe       	and.b	@r14,	r5	
    f2a8:	e6 99 86 e6 	cmp.b	@r9,	-6522(r6);0xe686(r6)
    f2ac:	14 20       	jnz	$+42     	;abs 0xf2d6
    f2ae:	56 6d ee 75 	addc.b	30190(r13),r6	;0x75ee(r13)
    f2b2:	14 11 13 09 	rra	2323(r4)	;0x0913(r4)
    f2b6:	0d df       	bis	r15,	r13	
    f2b8:	89 9a 14 df 	cmp	r10,	-8428(r9);0xdf14(r9)
    f2bc:	89 d4 14 df 	bis	r4,	-8428(r9);0xdf14(r9)
    f2c0:	89 a7 14 86 	dadd	r7,	-31212(r9);0x8614(r9)
    f2c4:	14 e0 9f 36 	xor	13983(r0),r4	;PC rel. 0x2965
    f2c8:	a2 36       	jge	$-698    	;abs 0xf00e
    f2ca:	26 37       	jge	$-434    	;abs 0xf118
    f2cc:	e6 60 98 98 	addc.b	@r0,	-26472(r6);0x9898(r6)
    f2d0:	98 37       	jge	$-206    	;abs 0xf202
    f2d2:	25 44       	mov	@r4,	r5	
    f2d4:	6f 96       	cmp.b	@r6,	r15	
    f2d6:	42 2b       	jnc	$-378    	;abs 0xf15c
    f2d8:	8f a6 a6 cf 	dadd	r6,	-12378(r15);0xcfa6(r15)
    f2dc:	c0 0f       	.word	0x0fc0;	????	
    f2de:	8f c0 0f 56 	bic	r0,	22031(r15);0x560f(r15)
    f2e2:	8f c0 15 2f 	bic	r0,	12053(r15);0x2f15(r15)
    f2e6:	d4 1f       	.word	0x1fd4;	????	
    f2e8:	52 2d       	jc	$+678    	;abs 0xf58e
    f2ea:	46 6f       	addc.b	r15,	r6	
    f2ec:	66 3e       	jmp	$-818    	;abs 0xefba
    f2ee:	84 e0 24 8f 	xor	r0,	-28892(r4);0x8f24(r4)
    f2f2:	c0 1a       	.word	0x1ac0;	????	
    f2f4:	86 8f c0 3d 	sub	r15,	15808(r6);0x3dc0(r6)
    f2f8:	a6 df d7 76 	bis	@r15,	30423(r6);0x76d7(r6)
    f2fc:	16 9f 53 29 	cmp	10579(r15),r6	;0x2953(r15)
    f300:	eb 6a bf 24 	addc.b	@r10,	9407(r11);0x24bf(r11)
    f304:	71 71       	subc.b	@r1+,	r1	
    f306:	71 21       	jnz	$+740    	;abs 0xf5ea
    f308:	84 e0 d1 17 	xor	r0,	6097(r4);0x17d1(r4)
    f30c:	e2 a7 37 2f 	dadd.b	@r7,	&0x2f37	
    f310:	a7 35       	jge	$+848    	;abs 0xf660
    f312:	63 d7       	.word	0xd763;	????	Illegal as 2-op instr
    f314:	37 df       	bis	@r15+,	r7	
    f316:	41 99       	cmp.b	r9,	r1	
    f318:	9f 20       	jnz	$+320    	;abs 0xf458
    f31a:	bf 84 e0 36 	sub	@r4+,	14048(r15);0x36e0(r15)
    f31e:	8f c0 24 d0 	bic	r0,	-12252(r15);0xd024(r15)
    f322:	20 1f       	.word	0x1f20;	????	
    f324:	76 16       	.word	0x1676;	????	
    f326:	76 71       	subc.b	@r1+,	r6	
    f328:	2a 1f       	.word	0x1f2a;	????	
    f32a:	24 00       	.word	0x0024;	????	
    f32c:	eb ee 98 98 	xor.b	@r14,	-26472(r11);0x9898(r11)
    f330:	98 37       	jge	$-206    	;abs 0xf262
    f332:	88 8f 90 d0 	sub	r15,	-12144(r8);0xd090(r8)
    f336:	3e 71       	subc	@r1+,	r14	
    f338:	bf 89 2f 16 	sub	@r9+,	5679(r15);0x162f(r15)
    f33c:	46 64       	addc.b	r4,	r6	
    f33e:	84 c2 c6 88 	bic	r2,	-30522(r4);0x88c6(r4)
    f342:	61 76       	subc.b	@r6,	r1	
    f344:	8f 50 73 e2 	add	r0,	-7565(r15);0xe273(r15)
    f348:	1f 24       	jz	$+64     	;abs 0xf388
    f34a:	88 b4 16 16 	bit	r4,	5654(r8);0x1616(r8)
    f34e:	8b c1 c5 2f 	bic	r1,	12229(r11);0x2fc5(r11)
    f352:	da b8 df 41 	bit.b	16863(r8),8089(r10);0x41df(r8), 0x1f99(r10)
    f356:	99 1f 
    f358:	84 16       	.word	0x1684;	????	
    f35a:	26 8b       	sub	@r11,	r6	
    f35c:	61 e9       	xor.b	@r9,	r1	
    f35e:	b7 16       	.word	0x16b7;	????	
    f360:	b3 a2       	dadd	#8,	#1	;r2 As==11, r3 As==01
    f362:	36 46       	mov	@r6+,	r6	
    f364:	37 a2       	dadd	#8,	r7	;r2 As==11
    f366:	36 36       	jge	$-914    	;abs 0xefd4
    f368:	37 a2       	dadd	#8,	r7	;r2 As==11
    f36a:	dd 37       	jge	$-68     	;abs 0xf326
    f36c:	c6 e7 d2 f1 	xor.b	r7,	-3630(r6);0xf1d2(r6)
    f370:	98 88 b0 88 	sub	-30544(r8),5670(r8);0x88b0(r8), 0x1626(r8)
    f374:	26 16 
    f376:	37 88       	sub	@r8+,	r7	
    f378:	26 26       	jz	$-946    	;abs 0xefc6
    f37a:	37 00       	.word	0x0037;	????	
    f37c:	c2 d0 b8 17 	bis.b	r0,	&0x17b8	
    f380:	b4 b0 d4 37 	bit	#14292,	-18296(r4);#0x37d4, 0xb888(r4)
    f384:	88 b8 
    f386:	16 36       	jge	$-978    	;abs 0xefb4
    f388:	8b 26       	jz	$-744    	;abs 0xf0a0
    f38a:	36 8b       	sub	@r11+,	r6	
    f38c:	26 46       	mov	@r6,	r6	
    f38e:	8b 26       	jz	$-744    	;abs 0xf0a6
    f390:	56 8b bf e3 	sub.b	-7233(r11),r6	;0xe3bf(r11)
    f394:	2f 16       	.word	0x162f;	????	
    f396:	56 8b 63 da 	sub.b	-9629(r11),r6	;0xda63(r11)
    f39a:	37 88       	sub	@r8+,	r7	
    f39c:	e7 76 36 37 	subc.b	@r6,	14134(r7);0x3736(r7)
    f3a0:	76 46       	mov.b	@r6+,	r6	
    f3a2:	37 a2       	dadd	#8,	r7	;r2 As==11
    f3a4:	36 16       	.word	0x1636;	????	
    f3a6:	37 cc       	bic	@r12+,	r7	
    f3a8:	73 77       	.word	0x7773;	????	Illegal as 2-op instr
    f3aa:	e2 71 52 3e 	subc.b	@r1,	&0x3e52	
    f3ae:	c5 59 c2 8e 	add.b	r9,	-28990(r5);0x8ec2(r5)
    f3b2:	03 e3       	.word	0xe303;	????	Illegal as 2-op instr
    f3b4:	ba 42 9a 01 	mov	#8,	410(r10);r2 As==11, 0x019a(r10)
    f3b8:	ba 42 e1 36 	mov	#8,	14049(r10);r2 As==11, 0x36e1(r10)
    f3bc:	2e 05       	.word	0x052e;	????	
    f3be:	49 da       	bis.b	r10,	r9	
    f3c0:	46 8f       	sub.b	r15,	r6	
    f3c2:	16 06       	.word	0x0616;	????	
    f3c4:	c3 48       	mov.b	r8,	#1	;r3 As==01
    f3c6:	03 e2       	.word	0xe203;	????	Illegal as 2-op instr
    f3c8:	4b c3       	bic.b	#0,	r11	;r3 As==00
    f3ca:	48 26       	jz	$-878    	;abs 0xf05c
    f3cc:	03 e2       	.word	0xe203;	????	Illegal as 2-op instr
    f3ce:	6b 53       	incd.b	r11		
    f3d0:	23 26       	jz	$-952    	;abs 0xf018
    f3d2:	9b 2b       	jnc	$-200    	;abs 0xf30a
    f3d4:	26 01       	.word	0x0126;	????	
    f3d6:	03 e2       	.word	0xe203;	????	Illegal as 2-op instr
    f3d8:	36 44       	mov	@r4+,	r6	
    f3da:	7f 64       	addc.b	@r4+,	r15	
    f3dc:	93 29       	jnc	$+808    	;abs 0xf704
    f3de:	05 4c       	mov	r12,	r5	
    f3e0:	ba 4c 74 06 	mov	@r12+,	1652(r10);0x0674(r10)
    f3e4:	29 57       	add	@r7,	r9	
    f3e6:	01 27       	jz	$-508    	;abs 0xf1ea
    f3e8:	bc 50 07 54 	add	#21511,	-17797(r12);#0x5407, 0xba7b(r12)
    f3ec:	7b ba 
    f3ee:	50 9a ba 55 	cmp.b	21946(r10),r0	;0x55ba(r10)
    f3f2:	7a ff       	and.b	@r15+,	r10	
    f3f4:	2f 44       	mov	@r4,	r15	
    f3f6:	91 2b       	jnc	$-220    	;abs 0xf31a
    f3f8:	c2 07       	.word	0x07c2;	????	
    f3fa:	56 e5 63 ba 	xor.b	-17821(r5),r6	;0xba63(r5)
    f3fe:	54 c2 a3 9a 	bic.b	&0x9aa3,r4	
    f402:	23 f8       	.word	0xf823;	????	Illegal as 2-op instr
    f404:	64 7b       	subc.b	@r11,	r4	
    f406:	64 41       	mov.b	@r1,	r4	
    f408:	36 2e       	jc	$-914    	;abs 0xf076
    f40a:	04 4b       	mov	r11,	r4	
    f40c:	04 d2       	bis	r2,	r4	
    f40e:	61 60       	addc.b	@r0,	r1	
    f410:	6c 93       	cmp.b	#2,	r12	;r3 As==10
    f412:	d3 57 44 93 	add.b	-27836(r7),#1	;0x9344(r7), r3 As==01
    f416:	46 24       	jz	$+142    	;abs 0xf4a4
    f418:	2c 44       	mov	@r4,	r12	
    f41a:	6a 83       	decd.b	r10		
    f41c:	92 b4 5b 7f 	bit	32603(r4),&0xaf46	;0x7f5b(r4)
    f420:	46 af 
    f422:	64 94       	cmp.b	@r4,	r4	
    f424:	70 78       	subc.b	@r8+,	r0	
    f426:	29 60       	addc	@r0,	r9	
    f428:	74 29       	jnc	$+746    	;abs 0xf712
    f42a:	60 74       	subc.b	@r4,	r0	
    f42c:	29 60       	addc	@r0,	r9	
    f42e:	74 78       	subc.b	@r8+,	r4	
    f430:	78 73       	subc.b	#-1,	r8	;r3 As==11
    f432:	2c 3e       	jmp	$-934    	;abs 0xf08c
    f434:	84 ef 66 6a 	xor	r15,	27238(r4);0x6a66(r4)
    f438:	bf 48 ee 7b 	mov	@r8+,	31726(r15);0x7bee(r15)
    f43c:	db 62 62 3b 	addc.b	&0x3b62,-27798(r11);0x936a(r11)
    f440:	6a 93 
    f442:	8f 43 36 e3 	mov	#0,	-7370(r15);r3 As==00, 0xe336(r15)
    f446:	93 53       	inc	#1		;r3 As==01
    f448:	fb e3 97 53 	xor.b	#-1,	21399(r11);r3 As==11, 0x5397(r11)
    f44c:	33 7f       	.word	0x7f33;	????	Illegal as 2-op instr
    f44e:	9e 90 93 a1 	cmp	-24173(r0),27723(r14);PC rel. 0x95e3, 0x6c4b(r14)
    f452:	4b 6c 
    f454:	c2 9b 64 44 	cmp.b	r11,	&0x4464	
    f458:	68 9d       	cmp.b	@r13,	r8	
    f45a:	9e 2b       	jnc	$-194    	;abs 0xf398
    f45c:	5f 86 06 76 	sub.b	30214(r6),r15	;0x7606(r6)
    f460:	8f 44 7a b4 	mov	r4,	-19334(r15);0xb47a(r15)
    f464:	01 ba       	bit	r10,	r1	
    f466:	c2 e1 af 51 	xor.b	r1,	&0x51af	
    f46a:	d1 6f 44 9a 	addc.b	-26044(r15),-1029(r1);0x9a44(r15), 0xfbfb(r1)
    f46e:	fb fb 
    f470:	9c 0e       	.word	0x0e9c;	????	
    f472:	26 c2       	bic	#4,	r6	;r2 As==10
    f474:	84 46 9c 44 	mov	r6,	17564(r4);0x449c(r4)
    f478:	9e 02       	.word	0x029e;	????	
    f47a:	b9 73 6a 64 	subc	#-1,	25706(r9);r3 As==11, 0x646a(r9)
    f47e:	c8 76 76 1f 	subc.b	r6,	8054(r8);0x1f76(r8)
    f482:	20 4f       	br	@r15		
    f484:	e6 a6 a6 c6 	dadd.b	@r6,	-14682(r6);0xc6a6(r6)
    f488:	a6 26       	jz	$-690    	;abs 0xf1d6
    f48a:	0e 13       	reti			;return from interupt
    f48c:	23 32       	jn	$-952    	;abs 0xf0d4
    f48e:	22 f3       	and	#2,	r2	;r3 As==10
    f490:	f5 77 b3 33 	subc.b	@r7+,	13235(r5);0x33b3(r5)
    f494:	35 79       	subc	@r9+,	r5	
    f496:	b1 33       	jn	$-156    	;abs 0xf3fa
    f498:	37 7a       	subc	@r10+,	r7	
    f49a:	b7 7b ef b7 	subc	@r11+,	-18449(r7);0xb7ef(r7)
    f49e:	7b f7       	and.b	@r7+,	r11	
    f4a0:	79 b3       	bit.b	#-1,	r9	;r3 As==11
    f4a2:	32 84       	sub	@r4+,	r2	
    f4a4:	9f 6d e7 db 	addc	-9241(r13),621(r15);0xdbe7(r13), 0x026d(r15)
    f4a8:	6d 02 
    f4aa:	ef 71 71 71 	subc.b	@r1,	29041(r15);0x7171(r15)
    f4ae:	84 00       	.word	0x0084;	????	
    f4b0:	00 00       	.word	0x0000;	????	
    f4b2:	c7 81 5e 45 	sub.b	r1,	17758(r7);0x455e(r7)
    f4b6:	8f 25       	jz	$+800    	;abs 0xf7d6
    f4b8:	09 54       	add	r4,	r9	
    f4ba:	9d 73 73 9f 	subc	#1,	-24717(r13);r3 As==01, 0x9f73(r13)
    f4be:	71 78       	subc.b	@r8+,	r1	
    f4c0:	16 75 74 2b 	subc	11124(r5),r6	;0x2b74(r5)
    f4c4:	83 78       	subc	r8,	#1	;r3 As==01
    f4c6:	16 21       	jnz	$+558    	;abs 0xf6f4
    f4c8:	98 7b 87 71 	subc	29063(r11),8771(r8);0x7187(r11), 0x2243(r8)
    f4cc:	43 22 
    f4ce:	75 87       	sub.b	@r7+,	r5	
    f4d0:	6c 64       	addc.b	@r4,	r12	
    f4d2:	ed 61 2d 2b 	addc.b	@r1,	11053(r13);0x2b2d(r13)
    f4d6:	64 91       	cmp.b	@r1,	r4	
    f4d8:	bd 8a 6d 42 	sub	@r10+,	17005(r13);0x426d(r13)
    f4dc:	31 47       	mov	@r7+,	r1	
    f4de:	8b 9d f8 6d 	cmp	r13,	28152(r11);0x6df8(r11)
    f4e2:	1b 8e 4f 40 	sub	16463(r14),r11	;0x404f(r14)
    f4e6:	77 8e       	sub.b	@r14+,	r7	
    f4e8:	78 47       	mov.b	@r7+,	r8	
    f4ea:	8e 78 8a 84 	subc	r8,	-31606(r14);0x848a(r14)
    f4ee:	23 ef       	.word	0xef23;	????	Illegal as 2-op instr
    f4f0:	e9 e9 cf 20 	xor.b	@r9,	8399(r9);0x20cf(r9)
    f4f4:	73 1f       	.word	0x1f73;	????	
    f4f6:	e9 23       	jnz	$-44     	;abs 0xf4ca
    f4f8:	2b c2       	bic	#4,	r11	;r2 As==10
    f4fa:	ba 93 42 a3 	cmp	#-1,	-23742(r10);r3 As==11, 0xa342(r10)
    f4fe:	6d 0d       	.word	0x0d6d;	????	
    f500:	06 9b       	cmp	r11,	r6	
    f502:	8a 23       	jnz	$-234    	;abs 0xf418
    f504:	6d 00       	.word	0x006d;	????	
    f506:	95 96 52 b2 	cmp	-19886(r6),-15981(r5);0xb252(r6), 0xc193(r5)
    f50a:	93 c1 
    f50c:	46 2f       	jc	$-370    	;abs 0xf39a
    f50e:	44 84       	sub.b	r4,	r4	
    f510:	52 3e       	jmp	$-858    	;abs 0xf1b6
    f512:	8e 4f b8 9a 	mov	r15,	-25928(r14);0x9ab8(r14)
    f516:	98 71 b8 9a 	subc	-25928(r1),13889(r8);0x9ab8(r1), 0x3641(r8)
    f51a:	41 36 
    f51c:	44 43       	clr.b	r4		
    f51e:	84 c2 1e 03 	bic	r2,	798(r4)	;0x031e(r4)
    f522:	54 17       	.word	0x1754;	????	
    f524:	25 63       	addc	#2,	r5	;r3 As==10
    f526:	7f d8       	bis.b	@r8+,	r15	
    f528:	9f 9b 64 45 	cmp	17764(r11),30109(r15);0x4564(r11), 0x759d(r15)
    f52c:	9d 75 
    f52e:	75 25       	jz	$+748    	;abs 0xf81a
    f530:	13 84       	.word	0x8413;	????	Illegal as 2-op instr
    f532:	c5 a2 54 7f 	dadd.b	r2,	32596(r5);0x7f54(r5)
    f536:	16 2e       	jc	$-978    	;abs 0xf164
    f538:	91 03       	.word	0x0391;	????	
    f53a:	41 71       	subc.b	r1,	r1	
    f53c:	29 5e       	add	@r14,	r9	
    f53e:	45 a7       	dadd.b	r7,	r5	
    f540:	bd a9 25 2d 	dadd	@r9+,	11557(r13);0x2d25(r13)
    f544:	ef 41 bd a7 	mov.b	@r1,	-22595(r15);0xa7bd(r15)
    f548:	af 76 c4 a7 	subc	@r6,	-22588(r15);0xa7c4(r15)
    f54c:	36 87       	sub	@r7+,	r6	
    f54e:	9f 42 2f 36 	mov	&0x362f,17667(r15);0x4503(r15)
    f552:	03 45 
    f554:	a9 93 84 58 	cmp	#2,	22660(r9);r3 As==10, 0x5884(r9)
    f558:	83 c5       	bic	r5,	#1	;r3 As==01
    f55a:	aa 71 07 5e 	subc	@r1,	24071(r10);0x5e07(r10)
    f55e:	71 9f       	cmp.b	@r15+,	r1	
    f560:	31 2f       	jc	$-412    	;abs 0xf3c4
    f562:	c7 b1 5e c2 	bit.b	r1,	-15778(r7);0xc25e(r7)
    f566:	45 af       	dadd.b	r15,	r5	
    f568:	bd 8a ac 44 	sub	@r10+,	17580(r13);0x44ac(r13)
    f56c:	a0 33       	jn	$-190    	;abs 0xf4ae
    f56e:	9d ef e9 e9 	xor	-5655(r15),8937(r13);0xe9e9(r15), 0x22e9(r13)
    f572:	e9 22 
    f574:	aa 2a       	jnc	$-682    	;abs 0xf2ca
    f576:	45 52       	add.b	r2,	r5	
    f578:	bd 8b c2 ac 	sub	@r11+,	-21310(r13);0xacc2(r13)
    f57c:	00 52       	add	r2,	r0	
    f57e:	02 7e       	subc	r14,	r2	
    f580:	42 46       	mov.b	r6,	r2	
    f582:	42 62       	rlc.b	r2		
    f584:	62 92       	cmp.b	#4,	r2	;r2 As==10
    f586:	92 92 92 3e 	cmp	&0x3e92,&0xf216	
    f58a:	16 f2 
    f58c:	f2 96 dd af 	cmp.b	@r6+,	&0xafdd	
    f590:	2e d3       	bis	#2,	r14	;r3 As==10
    f592:	2e bd       	bit	@r13,	r14	
    f594:	f2 0d       	.word	0x0df2;	????	
    f596:	5f bd f9 2e 	bit.b	12025(r13),r15	;0x2ef9(r13)
    f59a:	0d 5f       	add	r15,	r13	
    f59c:	dc 7c 0d d1 	subc.b	-12019(r12),-27435(r12);0xd10d(r12), 0x94d5(r12)
    f5a0:	d5 94 
    f5a2:	d1 0d       	.word	0x0dd1;	????	
    f5a4:	06 f7       	and	r7,	r6	
    f5a6:	bd ec e0 2e 	xor	@r12+,	12000(r13);0x2ee0(r13)
    f5aa:	95 bf 52 b2 	bit	-19886(r15),-19930(r5);0xb252(r15), 0xb226(r5)
    f5ae:	26 b2 
    f5b0:	84 00       	.word	0x0084;	????	
    f5b2:	2e bd       	bit	@r13,	r14	
    f5b4:	7c 26       	jz	$-774    	;abs 0xf2ae
    f5b6:	5e 26       	jz	$-834    	;abs 0xf274
    f5b8:	2e 1b       	.word	0x1b2e;	????	
    f5ba:	d5 94 d1 1d 	cmp.b	7633(r4),16098(r5);0x1dd1(r4), 0x3ee2(r5)
    f5be:	e2 3e 
    f5c0:	05 0d       	.word	0x0d05;	????	
    f5c2:	94 0d       	.word	0x0d94;	????	
    f5c4:	97 0d       	.word	0x0d97;	????	
    f5c6:	98 0d       	.word	0x0d98;	????	
    f5c8:	2c 0d       	.word	0x0d2c;	????	
    f5ca:	03 0d       	.word	0x0d03;	????	
    f5cc:	d1 0d       	.word	0x0dd1;	????	
    f5ce:	5f 0d       	.word	0x0d5f;	????	
    f5d0:	06 0d       	.word	0x0d06;	????	
    f5d2:	06 2e       	jc	$-1010   	;abs 0xf1e0
    f5d4:	f5 26       	jz	$-532    	;abs 0xf3c0
    f5d6:	bc 84 d1 62 	sub	@r4+,	25297(r12);0x62d1(r12)
    f5da:	3e 26       	jz	$-898    	;abs 0xf258
    f5dc:	72 0d       	.word	0x0d72;	????	
    f5de:	95 17       	.word	0x1795;	????	
    f5e0:	72 2e       	jc	$-794    	;abs 0xf2c6
    f5e2:	15 4e 0f 17 	mov	5903(r14),r5	;0x170f(r14)
    f5e6:	5e a2 0f 17 	dadd.b	&0x170f,r14	
    f5ea:	a2 26       	jz	$-698    	;abs 0xf330
    f5ec:	2e 15       	.word	0x152e;	????	
    f5ee:	6e 0f       	.word	0x0f6e;	????	
    f5f0:	17 a2 72 15 	dadd	&0x1572,r7	
    f5f4:	7e 0f       	.word	0x0f7e;	????	
    f5f6:	17 e4 0f 17 	xor	5903(r4),r7	;0x170f(r4)
    f5fa:	6d e3       	xor.b	#2,	r13	;r3 As==10
    f5fc:	41 50       	add.b	r0,	r1	
    f5fe:	71 4f       	mov.b	@r15+,	r1	
    f600:	41 61       	rlc.b	r1		
    f602:	e4 d1 0f dc 	bis.b	@r1,	-9201(r4);0xdc0f(r4)
    f606:	7c bd       	bit.b	@r13+,	r12	
    f608:	7c 4e       	mov.b	@r14+,	r12	
    f60a:	26 2e       	jc	$-946    	;abs 0xf258
    f60c:	15 1f       	.word	0x1f15;	????	
    f60e:	85 dc f9 3e 	bis	r12,	16121(r5);0x3ef9(r5)
    f612:	2e 15       	.word	0x152e;	????	
    f614:	f2 0f       	.word	0x0ff2;	????	
    f616:	1d 85 df dd 	sub	-8737(r5),r13	;0xdddf(r5)
    f61a:	db 47 7c 65 	mov.b	25980(r7),6780(r11);0x657c(r7), 0x1a7c(r11)
    f61e:	7c 1a 
    f620:	81 f9 6e 58 	and	r9,	22638(r1);0x586e(r1)
    f624:	a5 dd f9 5e 	bis	@r13,	24313(r5);0x5ef9(r5)
    f628:	60 f9       	and.b	@r9,	r0	
    f62a:	3e 2e       	jc	$-898    	;abs 0xf2a8
    f62c:	5e 61 a5 e0 	addc.b	-8027(r1),r14	;0xe0a5(r1)
    f630:	2a a1       	dadd	@r1,	r10	
    f632:	f9 7e 58 3a 	subc.b	@r14+,	14936(r9);0x3a58(r9)
    f636:	f9 e4 0f 1f 	xor.b	@r4+,	7951(r9);0x1f0f(r9)
    f63a:	45 f0       	and.b	r0,	r5	
    f63c:	67 e5       	xor.b	@r5,	r7	
    f63e:	75 ea       	xor.b	@r10+,	r5	
    f640:	3e 26       	jz	$-898    	;abs 0xf2be
    f642:	1e 1b       	.word	0x1b1e;	????	
    f644:	1d e2 06 ab 	xor	&0xab06,r13	
    f648:	1e 2e       	jc	$-962    	;abs 0xf286
    f64a:	2e bd       	bit	@r13,	r14	
    f64c:	7c 15       	.word	0x157c;	????	
    f64e:	1d 19       	.word	0x191d;	????	
    f650:	1d 3e       	jmp	$-964    	;abs 0xf28c
    f652:	52 cd d4 16 	bic.b	5844(r13),r2	;0x16d4(r13)
    f656:	3e 26       	jz	$-898    	;abs 0xf2d4
    f658:	1b bf e0 52 	bit	21216(r15),r11	;0x52e0(r15)
    f65c:	2e f9       	and	@r9,	r14	
    f65e:	2e 15       	.word	0x152e;	????	
    f660:	3e 11       	rra	@r14+		
    f662:	e9 15       	.word	0x15e9;	????	
    f664:	1f f9 5e 2e 	and	11870(r9),r15	;0x2e5e(r9)
    f668:	ec 15       	.word	0x15ec;	????	
    f66a:	f2 13       	.word	0x13f2;	????	
    f66c:	1e 1b       	.word	0x1b1e;	????	
    f66e:	f9 2e       	jc	$-524    	;abs 0xf462
    f670:	1b f9 26 6d 	and	27942(r9),r11	;0x6d26(r9)
    f674:	00 67       	addc	r7,	r0	
    f676:	b7 3e       	jmp	$-656    	;abs 0xf3e6
    f678:	be 7c dd f9 	subc	@r12+,	-1571(r14);0xf9dd(r14)
    f67c:	2e 2e       	jc	$-930    	;abs 0xf2da
    f67e:	72 15       	.word	0x1572;	????	
    f680:	5e 11 ec 15 	rra.b	5612(r14)	;0x15ec(r14)
    f684:	1f f9 52 2e 	and	11858(r9),r15	;0x2e52(r9)
    f688:	3e 15       	.word	0x153e;	????	
    f68a:	f2 13       	.word	0x13f2;	????	
    f68c:	52 1b       	.word	0x1b52;	????	
    f68e:	bc 42 62 84 	mov	#8,	-31646(r12);r2 As==11, 0x8462(r12)
    f692:	52 de ad f7 	bis.b	-2131(r14),r2	;0xf7ad(r14)
    f696:	06 7f       	subc	r15,	r6	
    f698:	68 2e       	jc	$-814    	;abs 0xf36a
    f69a:	84 f5 3e 84 	and	r5,	-31682(r4);0x843e(r4)
    f69e:	f5 1e       	.word	0x1ef5;	????	
    f6a0:	84 f5 2e 84 	and	r5,	-31698(r4);0x842e(r4)
    f6a4:	f5 0e       	.word	0x0ef5;	????	
    f6a6:	84 43 8f 16 	mov	#0,	5775(r4);r3 As==00, 0x168f(r4)
    f6aa:	fa 43 9c 84 	mov.b	#-1,	-31588(r10);r3 As==11, 0x849c(r10)
    f6ae:	00 00       	.word	0x0000;	????	
    f6b0:	00 0f       	.word	0x0f00;	????	
    f6b2:	48 4e       	mov.b	r14,	r8	
    f6b4:	4e 00       	.word	0x004e;	????	
    f6b6:	00 cf       	bic	r15,	r0	
    f6b8:	c0 44 04 dc 	mov.b	r4,	-9212(r0);PC rel. 0xd2be
    f6bc:	52 54 56 5c 	add.b	23638(r4),r2	;0x5c56(r4)
    f6c0:	5e 61 67 78 	addc.b	30823(r1),r14	;0x7867(r1)
    f6c4:	77 75       	subc.b	@r5+,	r7	
    f6c6:	8b 71 6e 87 	subc	r1,	-30866(r11);0x876e(r11)
    f6ca:	86 88 d8 c4 	sub	r8,	-15144(r6);0xc4d8(r6)
    f6ce:	b2 b5 a9 a4 	bit	@r5+,	&0xa4a9	
    f6d2:	64 7b       	subc.b	@r11,	r4	
    f6d4:	7d 6a       	addc.b	@r10+,	r13	
    f6d6:	8e 73 6f 81 	sbc	-32401(r14)	;0x816f(r14)
    f6da:	80 82 cb 6c 	sub	r2,	27851(r0);PC rel. 0x63a7
    f6de:	bb bc ab a6 	bit	@r12+,	-22869(r11);0xa6ab(r11)
    f6e2:	42 2b       	jnc	$-378    	;abs 0xf568
    f6e4:	44 8f       	sub.b	r15,	r4	
    f6e6:	a6 a6 8f c0 	dadd	@r6,	-16241(r6);0xc08f(r6)
    f6ea:	11 cf c0 45 	bic	17856(r15),r1	;0x45c0(r15)
    f6ee:	8f 56 8f c0 	add	r6,	-16241(r15);0xc08f(r15)
    f6f2:	3a d1       	bis	@r1+,	r10	
    f6f4:	11 23       	jnz	$-476    	;abs 0xf518
    f6f6:	6d d9       	bis.b	@r9,	r13	
    f6f8:	e0 24       	jz	$+450    	;abs 0xf8ba
    f6fa:	cf c0 13 52 	bic.b	r0,	21011(r15);0x5213(r15)
    f6fe:	ad 00       	.word	0x00ad;	????	
    f700:	73 c2       	.word	0xc273;	????	Illegal as 2-op instr
    f702:	52 24       	jz	$+166    	;abs 0xf7a8
    f704:	ad a7 6d 4e 	dadd	@r7,	20077(r13);0x4e6d(r13)
    f708:	91 ac 0d 92 	dadd	-28147(r12),109(r1)	;0x920d(r12), 0x006d(r1)
    f70c:	6d 00 
    f70e:	91 58 0d 2a 	add	10765(r8),3418(r1);0x2a0d(r8), 0x0d5a(r1)
    f712:	5a 0d 
    f714:	62 5a       	add.b	@r10,	r2	
    f716:	0d 5d       	rla	r13		
    f718:	5a 0d       	.word	0x0d5a;	????	
    f71a:	ce 5a 0d 1d 	add.b	r10,	7437(r14);0x1d0d(r14)
    f71e:	0d 24       	jz	$+28     	;abs 0xf73a
    f720:	81 5d 65 5d 	add	r13,	23909(r1);0x5d65(r1)
    f724:	59 5d 5c 93 	add.b	-27812(r13),r9	;0x935c(r13)
    f728:	a1 61 81 2d 	addc	@r1,	11649(r1);0x2d81(r1)
    f72c:	00 1d       	.word	0x1d00;	????	
    f72e:	27 81       	sub	@r1,	r7	
    f730:	1d 53       	inc	r13		
    f732:	a1 61 d1 97 	addc	@r1,	-26671(r1);0x97d1(r1)
    f736:	3d 10       	rrc	@r13+		
    f738:	a1 61 97 4d 	addc	@r1,	19863(r1);0x4d97(r1)
    f73c:	05 97       	cmp	r7,	r5	
    f73e:	4d 00       	.word	0x004d;	????	
    f740:	97 2d       	jc	$+816    	;abs 0xfa70
    f742:	f9 0d       	.word	0x0df9;	????	
    f744:	5a 82 b2 26 	sub.b	&0x26b2,r10	
    f748:	84 3e       	jmp	$-758    	;abs 0xf452
    f74a:	8e c3 bc 28 	bic	#0,	10428(r14);r3 As==00, 0x28bc(r14)
    f74e:	9c bc 28 e1 	bit	-7896(r12),-15966(r12);0xe128(r12), 0xc1a2(r12)
    f752:	a2 c1 
    f754:	3e 84       	sub	@r4+,	r14	
    f756:	a2 8e be 2c 	sub	@r14,	&0x2cbe	
    f75a:	ad a2 8e de 	dadd	#4,	-8562(r13);r2 As==10, 0xde8e(r13)
    f75e:	2c 6d       	addc	@r13,	r12	
    f760:	3e b3       	bit	#-1,	r14	;r3 As==11
    f762:	6d 1a       	.word	0x1a6d;	????	
    f764:	a2 d1 b7 a2 	bis	@r1,	&0xa2b7	
    f768:	26 ac       	dadd	@r12,	r6	
    f76a:	0d 98       	cmp	r8,	r13	
    f76c:	bc ac dd 30 	dadd	@r12+,	12509(r12);0x30dd(r12)
    f770:	d5 2c       	jc	$+428    	;abs 0xf91c
    f772:	ad bc 2c ad 	bit	@r12,	-21204(r13);0xad2c(r13)
    f776:	c3 8d       	sub.b	r13,	#1	;r3 As==01
    f778:	fa 32       	jn	$-522    	;abs 0xf56e
    f77a:	22 5d       	add	@r13,	r2	
    f77c:	bf d4 3d ee 	bis	@r4+,	-4547(r15);0xee3d(r15)
    f780:	5e 5e fe 7d 	add.b	32254(r14),r14	;0x7dfe(r14)
    f784:	43 5a       	.word	0x5a43;	????	Illegal as 2-op instr
    f786:	95 35       	jge	$+812    	;abs 0xfab2
    f788:	b2 84 d4 72 	sub	@r4+,	&0x72d4	
    f78c:	5a 6c 90 db 	addc.b	-9328(r12),r10	;0xdb90(r12)
    f790:	8f 50 e2 6a 	add	r0,	27362(r15);0x6ae2(r15)
    f794:	68 e1       	xor.b	@r1,	r8	
    f796:	8e 22       	jnz	$-738    	;abs 0xf4b4
    f798:	ef 7f dd 94 	subc.b	@r15,	-27427(r15);0x94dd(r15)
    f79c:	e0 8e 2a d1 	sub.b	@r14,	-11990(r0);PC rel. 0xc8c8
    f7a0:	3e 6f       	addc	@r15+,	r14	
    f7a2:	15 3d       	jmp	$+556    	;abs 0xf9ce
    f7a4:	25 3e       	jmp	$-948    	;abs 0xf3f0
    f7a6:	41 6d       	addc.b	r13,	r1	
    f7a8:	df 23       	jnz	$-64     	;abs 0xf768
    f7aa:	bf 5d e7 6f 	add	@r13+,	28647(r15);0x6fe7(r15)
    f7ae:	15 40 25 40 	mov	16421(r0),r5	;PC rel. 0x37d5
    f7b2:	41 6d       	addc.b	r13,	r1	
    f7b4:	f8 6d 3e 08 	addc.b	@r13+,	2110(r8);0x083e(r8)
    f7b8:	6d e0       	xor.b	@r0,	r13	
    f7ba:	21 25       	jz	$+580    	;abs 0xf9fe
    f7bc:	22 73       	subc	#2,	r2	;r3 As==10
    f7be:	6f 71       	subc.b	@r1,	r15	
    f7c0:	71 25       	jz	$+740    	;abs 0xfaa4
    f7c2:	84 73 52 c2 	sbc	-15790(r4)	;0xc252(r4)
    f7c6:	24 8f       	sub	@r15,	r4	
    f7c8:	86 8f c0 44 	sub	r15,	17600(r6);0x44c0(r6)
    f7cc:	e6 8f 20 fb 	sub.b	@r15,	-1248(r6);0xfb20(r6)
    f7d0:	9c 0e       	.word	0x0e9c;	????	
    f7d2:	3e 11       	rra	@r14+		
    f7d4:	04 28       	jnc	$+10     	;abs 0xf7de
    f7d6:	04 29       	jnc	$+522    	;abs 0xf9e0
    f7d8:	04 6c       	addc	r12,	r4	
    f7da:	6c 8e       	sub.b	@r14,	r12	
    f7dc:	24 8a       	sub	@r10,	r4	
    f7de:	ad 66 03 0d 	addc	@r6,	3331(r13);0x0d03(r13)
    f7e2:	bc 9b 25 f4 	cmp	@r11+,	-3035(r12);0xf425(r12)
    f7e6:	16 0d       	.word	0x0d16;	????	
    f7e8:	5f 7e bd 4a 	subc.b	19133(r14),r15	;0x4abd(r14)
    f7ec:	26 89       	sub	@r9,	r6	
    f7ee:	45 41       	mov.b	r1,	r5	
    f7f0:	43 46       	.word	0x4643;	????	Illegal as 2-op instr
    f7f2:	48 ad       	dadd.b	r13,	r8	
    f7f4:	b0 ad 80 bd 	dadd	@r13+,	-17024(r0);PC rel. 0xb576
    f7f8:	27 b2       	bit	#4,	r7	;r2 As==10
    f7fa:	6d e3       	xor.b	#2,	r13	;r3 As==10
    f7fc:	22 8b       	sub	@r11,	r2	
    f7fe:	53 47       	.word	0x4753;	????	Illegal as 2-op instr
    f800:	a4 02       	.word	0x02a4;	????	
    f802:	42 52       	rla.b	r2		
    f804:	f4 bd 26 cd 	bit.b	@r13+,	-13018(r4);0xcd26(r4)
    f808:	93 f4 92 f4 	and	-2926(r4),#1	;0xf492(r4), r3 As==01
    f80c:	24 ad       	dadd	@r13,	r4	
    f80e:	38 62       	addc	#8,	r8	;r2 As==11
    f810:	2d f6       	and	@r6,	r13	
    f812:	44 f4       	and.b	r4,	r4	
    f814:	66 41       	mov.b	@r1,	r6	
    f816:	23 f4       	.word	0xf423;	????	Illegal as 2-op instr
    f818:	f6 2e       	jc	$-530    	;abs 0xf606
    f81a:	7f ba       	bit.b	@r10+,	r15	
    f81c:	5b 7b 84 7b 	subc.b	31620(r11),r11	;0x7b84(r11)
    f820:	bb 5d 9b 75 	add	@r13+,	30107(r11);0x759b(r11)
    f824:	64 d5       	bis.b	@r5,	r4	
    f826:	5b 84 bd 4e 	sub.b	20157(r4),r11	;0x4ebd(r4)
    f82a:	bd 4c ac 16 	mov	@r12+,	5804(r13);0x16ac(r13)
    f82e:	0d 98       	cmp	r8,	r13	
    f830:	0d 06       	.word	0x060d;	????	
    f832:	b5 64 bc 52 	addc	@r4+,	21180(r5);0x52bc(r5)
    f836:	f4 16       	.word	0x16f4;	????	
    f838:	0d 2c       	jc	$+28     	;abs 0xf854
    f83a:	7e bd       	bit.b	@r13+,	r14	
    f83c:	4f bd       	bit.b	r13,	r15	
    f83e:	00 55       	add	r5,	r0	
    f840:	58 bd 50 8f 	bit.b	-28848(r13),r8	;0x8f50(r13)
    f844:	6d e7       	xor.b	@r7,	r13	
    f846:	20 28       	jnc	$+66     	;abs 0xf888
    f848:	8a 76 54 f2 	subc	r6,	-3500(r10);0xf254(r10)
    f84c:	ad 00       	.word	0x00ad;	????	
    f84e:	00 76       	subc	r6,	r0	
    f850:	78 5e       	add.b	@r14+,	r8	
    f852:	ad f7 3e f4 	and	@r7,	-3010(r13);0xf43e(r13)
    f856:	46 0a       	.word	0x0a46;	????	
    f858:	1a 2a       	jnc	$-970    	;abs 0xf48e
    f85a:	3a 4a       	mov	@r10+,	r10	
    f85c:	5a 6a 7a 6d 	addc.b	28026(r10),r10	;0x6d7a(r10)
    f860:	1a d6 9e 46 	bis	18078(r6),r10	;0x469e(r6)
    f864:	7f 78       	subc.b	@r8+,	r15	
    f866:	42 44       	mov.b	r4,	r2	
    f868:	02 8f       	sub	r15,	r2	
    f86a:	16 46 b2 b2 	mov	-19790(r6),r6	;0xb2b2(r6)
    f86e:	56 9b 6f b2 	cmp.b	-19857(r11),r6	;0xb26f(r11)
    f872:	5e 92 92 9c 	cmp.b	&0x9c92,r14	
    f876:	3e 0e       	.word	0x0e3e;	????	
    f878:	56 26       	jz	$-850    	;abs 0xf526
    f87a:	4e 26       	jz	$-866    	;abs 0xf518
    f87c:	92 92 92 bc 	cmp	&0xbc92,&0x0e46	
    f880:	46 0e 
    f882:	92 bc 36 9b 	bit	-25802(r12),&0x92c3	;0x9b36(r12)
    f886:	c3 92 
    f888:	3e 26       	jz	$-898    	;abs 0xf506
    f88a:	92 2e       	jc	$-730    	;abs 0xf5b0
    f88c:	92 ed 3a 46 	xor	17978(r13),&0x267f	;0x463a(r13)
    f890:	7f 26 
    f892:	3b 77       	subc	@r7+,	r11	
    f894:	3e 36       	jge	$-898    	;abs 0xf512
    f896:	5d 5d 26 9d 	add.b	-25306(r13),r13	;0x9d26(r13)
    f89a:	f5 00       	.word	0x00f5;	????	
    f89c:	f0 82 7a 7b 	sub.b	#8,	31610(r0);r2 As==11, PC rel. 0x7418
    f8a0:	85 34       	jge	$+268    	;abs 0xf9ac
    f8a2:	95 7c b2 3e 	subc	16050(r12),109(r5)	;0x3eb2(r12), 0x006d(r5)
    f8a6:	6d 00 
    f8a8:	62 72       	subc.b	#4,	r2	;r2 As==10
    f8aa:	84 00       	.word	0x0084;	????	
    f8ac:	00 00       	.word	0x0000;	????	
    f8ae:	00 00       	.word	0x0000;	????	
    f8b0:	00 00       	.word	0x0000;	????	
    f8b2:	22 28       	jnc	$+70     	;abs 0xf8f8
    f8b4:	8a 54 54 f2 	add	r4,	-3500(r10);0xf254(r10)
    f8b8:	46 44       	mov.b	r4,	r6	
    f8ba:	9e 7f d6 a6 	subc	-22826(r15),-6433(r14);0xa6d6(r15), 0xe6df(r14)
    f8be:	df e6 
    f8c0:	a6 a6 c6 a6 	dadd	@r6,	-22842(r6);0xa6c6(r6)
    f8c4:	26 46       	mov	@r6,	r6	
    f8c6:	8f 16       	.word	0x168f;	????	
    f8c8:	9c 4e 26 e6 	mov	-6618(r14),-30506(r12);0xe626(r14), 0x88d6(r12)
    f8cc:	d6 88 
    f8ce:	46 9c       	cmp.b	r12,	r6	
    f8d0:	6d 00       	.word	0x006d;	????	
    f8d2:	06 42       	mov	r2,	r6	
    f8d4:	8f 16       	.word	0x168f;	????	
    f8d6:	f6 9c 3e bc 	cmp.b	@r12+,	-17346(r6);0xbc3e(r6)
    f8da:	3e 9b       	cmp	@r11+,	r14	
    f8dc:	25 46       	mov	@r6,	r5	
    f8de:	7f 46       	mov.b	@r6+,	r15	
    f8e0:	8a 8f 16 9c 	sub	r15,	-25578(r10);0x9c16(r10)
    f8e4:	46 42       	mov.b	r2,	r6	
    f8e6:	4a 26       	jz	$-874    	;abs 0xf57c
    f8e8:	9d db 6d 02 	bis	621(r11),-6562(r13);0x026d(r11), 0xe65e(r13)
    f8ec:	5e e6 
    f8ee:	d6 9e 92 36 	cmp.b	13970(r14),16028(r6);0x3692(r14), 0x3e9c(r6)
    f8f2:	9c 3e 
    f8f4:	0e 56       	add	r6,	r14	
    f8f6:	26 86       	sub	@r6,	r6	
    f8f8:	26 92       	cmp	#4,	r6	;r2 As==10
    f8fa:	92 92 bc 46 	cmp	&0x46bc,&0x920e	
    f8fe:	0e 92 
    f900:	bc 36       	jge	$-646    	;abs 0xf67a
    f902:	9b 40 92 e6 	mov	-6510(r0),-28858(r11);PC rel. 0xdf96, 0x8f46(r11)
    f906:	46 8f 
    f908:	d6 26       	jz	$-594    	;abs 0xf6b6
    f90a:	e6 d6 9e 92 	bis.b	@r6,	-28002(r6);0x929e(r6)
    f90e:	82 e6 d6 9e 	xor	r6,	&0x9ed6	
    f912:	52 7f 78 42 	subc.b	17016(r15),r2	;0x4278(r15)
    f916:	46 9e       	cmp.b	r14,	r6	
    f918:	9c 53 0d 02 	inc	525(r12)	;0x020d(r12)
    f91c:	55 9e 42 78 	cmp.b	30786(r14),r5	;0x7842(r14)
    f920:	42 5d       	add.b	r13,	r2	
    f922:	a3 55       	add	@r5,	#1	;r3 As==01
    f924:	9e 8d f5 55 	sub	22005(r13),-32610(r14);0x55f5(r13), 0x809e(r14)
    f928:	9e 80 
    f92a:	57 77 7d 46 	subc.b	18045(r7),r7	;0x467d(r7)
    f92e:	42 df       	bis.b	r15,	r2	
    f930:	6d e7       	xor.b	@r7,	r13	
    f932:	cc 00       	.word	0x00cc;	????	
	...
    fab0:	00 5e       	add	r14,	r0	

0000fab2 <rom_33c_ex>:
    fab2:	4c 60       	addc.b	r0,	r12	
    fab4:	82 aa 8b bb 	dadd	r10,	&0xbb8b	
    fab8:	0a 88       	sub	r8,	r10	
    faba:	d6 68 4c 5a 	addc.b	23116(r8),-21592(r6);0x5a4c(r8), 0xaba8(r6)
    fabe:	a8 ab 
    fac0:	22 ae       	dadd	@r14,	r2	
    fac2:	b3 4e       	mov	@r14+,	#1	;r3 As==01
    fac4:	b8 62 8c a1 	addc	#8,	-24180(r8);r2 As==11, 0xa18c(r8)
    fac8:	03 b8       	.word	0xb803;	????	Illegal as 2-op instr
    faca:	6d d4       	bis.b	@r4,	r13	
    facc:	ea aa 22 ba 	dadd.b	@r10,	-17886(r10);0xba22(r10)
    fad0:	2e a4       	dadd	@r4,	r14	
    fad2:	ae 0a       	.word	0x0aae;	????	
    fad4:	aa ab ce 82 	dadd	@r11,	-32050(r10);0x82ce(r10)
    fad8:	8d aa ae ae 	dadd	r10,	-20818(r13);0xaeae(r13)
    fadc:	ae be aa bb 	bit	@r14,	-17494(r14);0xbbaa(r14)
    fae0:	ab 98 20 8a 	cmp	@r8,	-30176(r11);0x8a20(r11)
    fae4:	83 6d       	addc	r13,	#1	;r3 As==01
    fae6:	69 ab       	dadd.b	@r11,	r9	
    fae8:	aa ba 8a aa 	bit	@r10,	-21878(r10);0xaa8a(r10)
    faec:	0a ae       	dadd	r14,	r10	
    faee:	2b b2       	bit	#4,	r11	;r2 As==10
    faf0:	4a 2d       	jc	$+662    	;abs 0xfd86
    faf2:	b3 0a       	.word	0x0ab3;	????	
    faf4:	cc 44 00 00 	mov.b	r4,	0(r12)	;0x0000(r12)
    faf8:	00 00       	.word	0x0000;	????	
    fafa:	20 b0       	bit	@r0,	r0	
    fafc:	a4 49 66 04 	mov	@r9,	1126(r4);0x0466(r4)
    fb00:	ba ae ea 4a 	dadd	@r14+,	19178(r10);0x4aea(r10)
    fb04:	eb ea ba a9 	xor.b	@r10,	-22086(r11);0xa9ba(r11)
    fb08:	44 8e       	sub.b	r14,	r4	
    fb0a:	b8 2a       	jnc	$-654    	;abs 0xf87c
    fb0c:	a8 98 aa ae 	cmp	@r8,	-20822(r8);0xaeaa(r8)
    fb10:	2a 2c       	jc	$+86     	;abs 0xfb66
    fb12:	eb aa 2a aa 	dadd.b	@r10,	-21974(r11);0xaa2a(r11)
    fb16:	ae eb ab b2 	xor	@r11,	-19797(r14);0xb2ab(r14)
    fb1a:	2e 89       	sub	@r9,	r14	
    fb1c:	0a 08       	.word	0x080a;	????	
    fb1e:	40 40       	br	r0		
    fb20:	00 00       	.word	0x0000;	????	
    fb22:	04 00       	.word	0x0004;	????	
    fb24:	14 10 00 00 	rrc	0(r4)		;0x0000(r4)
    fb28:	00 00       	.word	0x0000;	????	
    fb2a:	00 00       	.word	0x0000;	????	
    fb2c:	00 80       	sub	r0,	r0	
    fb2e:	00 00       	.word	0x0000;	????	
    fb30:	00 00       	.word	0x0000;	????	
    fb32:	b8 93 a9 aa 	cmp	#-1,	-21847(r8);r3 As==11, 0xaaa9(r8)
    fb36:	e0 ba 2a a2 	bit.b	@r10,	-24022(r0);PC rel. 0x9d62
    fb3a:	3a a8       	dadd	@r8+,	r10	
    fb3c:	ab eb 24 ea 	xor	@r11,	-5596(r11);0xea24(r11)
    fb40:	22 e9       	xor	@r9,	r2	
    fb42:	ba a0 91 2c 	dadd	#11409,	12594(r10);#0x2c91, 0x3132(r10)
    fb46:	32 31 
    fb48:	21 c8       	bic	@r8,	r1	
    fb4a:	22 39       	jl	$+582    	;abs 0xfd90
    fb4c:	a1 a8 26 aa 	dadd	@r8,	-21978(r1);0xaa26(r1)
    fb50:	1a 8a ab ab 	sub	-21589(r10),r10	;0xabab(r10)
    fb54:	3b 49       	mov	@r9+,	r11	
    fb56:	ae 0e       	.word	0x0eae;	????	
    fb58:	6d 2a       	jnc	$-804    	;abs 0xf834
    fb5a:	a9 aa ae 08 	dadd	@r10,	2222(r9);0x08ae(r9)
    fb5e:	88 4a e4 b2 	mov	r10,	-19740(r8);0xb2e4(r8)
    fb62:	24 8d       	sub	@r13,	r4	
    fb64:	08 34       	jge	$+18     	;abs 0xfb76
    fb66:	01 00       	.word	0x0001;	????	
    fb68:	01 10       	rrc	r1		
    fb6a:	10 28       	jnc	$+34     	;abs 0xfb8c
    fb6c:	41 2c       	jc	$+132    	;abs 0xfbf0
    fb6e:	29 41       	mov	@r1,	r9	
    fb70:	03 e2       	.word	0xe203;	????	Illegal as 2-op instr
    fb72:	20 11       	rra	@r0		
    fb74:	20 80       	sub	@r0,	r0	
    fb76:	aa 41 04 a0 	mov	@r1,	-24572(r10);0xa004(r10)
    fb7a:	71 aa       	dadd.b	@r10+,	r1	
    fb7c:	ba 12       	call	@r10+		
    fb7e:	92 a4 48 ee 	dadd	-4536(r4),&0x226a	;0xee48(r4)
    fb82:	6a 22 
    fb84:	12 29       	jnc	$+550    	;abs 0xfdaa
    fb86:	04 8c       	sub	r12,	r4	
    fb88:	a8 9a 94 67 	cmp	@r10,	26516(r8);0x6794(r8)
    fb8c:	92 a9 90 aa 	dadd	-21872(r9),&0x9092	;0xaa90(r9)
    fb90:	92 90 
    fb92:	82 12       	call	r2		
    fb94:	a8 44 a0 6c 	mov	@r4,	27808(r8);0x6ca0(r8)
    fb98:	52 14       	.word	0x1452;	????	
    fb9a:	a0 22       	jnz	$-702    	;abs 0xf8dc
    fb9c:	cc a8 8b a2 	dadd.b	r8,	-23925(r12);0xa28b(r12)
    fba0:	ae ea 88 42 	xor	@r10,	17032(r14);0x4288(r14)
    fba4:	42 ae       	dadd.b	r14,	r2	
    fba6:	8a 48 ae ab 	mov	r8,	-21586(r10);0xabae(r10)
    fbaa:	31 03       	.word	0x0331;	????	
    fbac:	a8 81 00 00 	sub	@r1,	0(r8)	;0x0000(r8)
    fbb0:	00 c0       	bic	r0,	r0	
    fbb2:	00 8b       	sub	r11,	r0	
    fbb4:	aa 42 28 b1 	mov	#4,	-20184(r10);r2 As==10, 0xb128(r10)
    fbb8:	2a a9       	dadd	@r9,	r10	
    fbba:	b9 0a       	.word	0x0ab9;	????	
    fbbc:	aa 2a       	jnc	$-682    	;abs 0xf912
    fbbe:	29 8a       	sub	@r10,	r9	
    fbc0:	aa 2b       	jnc	$-170    	;abs 0xfb16
    fbc2:	a2 39       	jl	$+838    	;abs 0xff08
    fbc4:	80 cc 20 33 	bic	r12,	13088(r0);PC rel. 0x2ee6
    fbc8:	d3 4a 6b 2e 	mov.b	11883(r10),#1	;0x2e6b(r10), r3 As==01
    fbcc:	89 22       	jnz	$-748    	;abs 0xf8e0
    fbce:	41 24       	jz	$+132    	;abs 0xfc52
    fbd0:	b8 ab 34 30 	dadd	@r11+,	12340(r8);0x3034(r8)
    fbd4:	08 81       	sub	r1,	r8	
    fbd6:	44 32       	jn	$-886    	;abs 0xf860
    fbd8:	ec 4a 12 8a 	mov.b	@r10,	-30190(r12);0x8a12(r12)
    fbdc:	0a c0       	bic	r0,	r10	
    fbde:	ea a2 a2 ae 	dadd.b	#4,	-20830(r10);r2 As==10, 0xaea2(r10)
    fbe2:	8a ba 2e 0a 	bit	r10,	2606(r10);0x0a2e(r10)
    fbe6:	ab 12       	call	@r11		
    fbe8:	28 89       	sub	@r9,	r8	
    fbea:	44 8a       	sub.b	r10,	r4	
    fbec:	48 22       	jnz	$-878    	;abs 0xf87e
    fbee:	48 80       	sub.b	r0,	r8	
    fbf0:	08 11       	rra	r8		
    fbf2:	8d 8a 64 2c 	sub	r10,	11364(r13);0x2c64(r13)
    fbf6:	2b 32       	jn	$-936    	;abs 0xf84e
    fbf8:	39 49       	mov	@r9+,	r9	
    fbfa:	93 42 01 03 	mov	&0x0301,#1	;r3 As==01
    fbfe:	28 ba       	bit	@r10,	r8	
    fc00:	e4 4c b2 ee 	mov.b	@r12,	-4430(r4);0xeeb2(r4)
    fc04:	80 13       	.word	0x1380;	????	
    fc06:	ca 8a c4 a9 	sub.b	r10,	-22076(r10);0xa9c4(r10)
    fc0a:	24 67       	addc	@r7,	r4	
    fc0c:	ab 61 a8 02 	addc	@r1,	680(r11);0x02a8(r11)
    fc10:	8b 2b       	jnc	$-232    	;abs 0xfb28
    fc12:	82 4d 90 6e 	mov	r13,	&0x6e90	
    fc16:	00 a9       	dadd	r9,	r0	
    fc18:	c4 36       	jge	$-630    	;abs 0xf9a2
    fc1a:	33 02       	.word	0x0233;	????	
    fc1c:	00 00       	.word	0x0000;	????	
    fc1e:	c8 90 08 80 	cmp.b	r0,	-32760(r8);0x8008(r8)
    fc22:	e0 30       	jn	$+450    	;abs 0xfde4
    fc24:	12 82 aa 4c 	sub	&0x4caa,r2	
    fc28:	03 e0       	.word	0xe003;	????	Illegal as 2-op instr
    fc2a:	88 b0 60 28 	bit	r0,	10336(r8);0x2860(r8)
    fc2e:	ab aa a4 0a 	dadd	@r10,	2724(r11);0x0aa4(r11)
    fc32:	0f 20       	jnz	$+32     	;abs 0xfc52
    fc34:	02 aa       	dadd	r10,	r2	
    fc36:	4c 10       	rrc.b	r12		
    fc38:	40 21       	jnz	$+642    	;abs 0xfeba
    fc3a:	c0 04       	.word	0x04c0;	????	
    fc3c:	00 30       	jn	$+2      	;abs 0xfc3e
    fc3e:	31 c2       	bic	#8,	r1	;r2 As==11
    fc40:	8c 00       	.word	0x008c;	????	
    fc42:	38 3a       	jl	$-910    	;abs 0xf8b4
    fc44:	20 4c       	br	@r12		
    fc46:	08 49       	mov	r9,	r8	
    fc48:	c7 09       	.word	0x09c7;	????	
    fc4a:	08 8e       	sub	r14,	r8	
    fc4c:	34 29       	jnc	$+618    	;abs 0xfeb6
    fc4e:	50 8a 30 a8 	sub.b	-22480(r10),r0	;0xa830(r10)
    fc52:	0a 00       	.word	0x000a;	????	
    fc54:	0c 99       	cmp	r9,	r12	
    fc56:	1d cd 09 2e 	bic	11785(r13),r13	;0x2e09(r13)
    fc5a:	96 27       	jz	$-210    	;abs 0xfb88
    fc5c:	02 9a       	cmp	r10,	r2	
    fc5e:	0a 8b       	sub	r11,	r10	
    fc60:	12 9d 10 1a 	cmp	6672(r13),r2	;0x1a10(r13)
    fc64:	c6 e0 a8 cc 	xor.b	r0,	-13144(r6);0xcca8(r6)
    fc68:	a2 a2 30 0c 	dadd	#4,	&0x0c30	;r2 As==10
    fc6c:	cd 8c 0c 2a 	sub.b	r12,	10764(r13);0x2a0c(r13)
    fc70:	04 03       	.word	0x0304;	????	
    fc72:	00 27       	jz	$-510    	;abs 0xfa74
    fc74:	00 00       	.word	0x0000;	????	
    fc76:	00 b0       	bit	r0,	r0	
    fc78:	6c 00       	.word	0x006c;	????	
    fc7a:	77 20       	jnz	$+240    	;abs 0xfd6a
    fc7c:	70 30       	jn	$+226    	;abs 0xfd5e
    fc7e:	ff 0c       	.word	0x0cff;	????	
    fc80:	04 c3       	bic	#0,	r4	;r3 As==00
    fc82:	7f aa       	dadd.b	@r10+,	r15	
    fc84:	30 11 c7 8c 	rra	#-29497	;#0x8cc7
    fc88:	0c 8b       	sub	r11,	r12	
    fc8a:	7e c3       	bic.b	#-1,	r14	;r3 As==11
    fc8c:	8c c0 3f 32 	bic	r0,	12863(r12);0x323f(r12)
    fc90:	13 0c       	.word	0x0c13;	????	
    fc92:	cd cc 30 cc 	bic.b	r12,	-13264(r13);0xcc30(r13)
    fc96:	ff cc 30 cc 	bic.b	@r12+,	-13264(r15);0xcc30(r15)
    fc9a:	7e 13       	.word	0x137e;	????	
    fc9c:	11 00       	.word	0x0011;	????	
    fc9e:	21 44       	mov	@r4,	r1	
    fca0:	44 14       	.word	0x1444;	????	
    fca2:	c3 88       	sub.b	r8,	#1	;r3 As==01
    fca4:	ac 8b 7a cb 	sub	@r11,	-13446(r12);0xcb7a(r12)
    fca8:	04 07       	.word	0x0704;	????	
    fcaa:	80 3a       	jl	$-766    	;abs 0xf9ac
    fcac:	21 07       	.word	0x0721;	????	
    fcae:	0c c0       	bic	r0,	r12	
    fcb0:	b0 30       	jn	$+354    	;abs 0xfe12
    fcb2:	ff 53 53 53 	add.b	#-1,	21331(r15);r3 As==11, 0x5353(r15)
    fcb6:	77 1c       	.word	0x1c77;	????	
    fcb8:	fc ea 02 0a 	xor.b	@r10+,	2562(r12);0x0a02(r12)
    fcbc:	e0 18       	.word	0x18e0;	????	
    fcbe:	38 91       	cmp	@r1+,	r8	
    fcc0:	82 08       	.word	0x0882;	????	
    fcc2:	0a 0a       	.word	0x0a0a;	????	
    fcc4:	01 a9       	dadd	r9,	r1	
    fcc6:	a0 8a 56 d3 	sub	@r10,	-11434(r0);PC rel. 0xd01e
    fcca:	35 8a       	sub	@r10+,	r5	
    fccc:	20 98       	cmp	@r8,	r0	
    fcce:	00 28       	jnc	$+2      	;abs 0xfcd0
    fcd0:	f0 ea a1 cc 	xor.b	@r10+,	-13151(r0);PC rel. 0xc973
    fcd4:	00 7c       	subc	r12,	r0	
    fcd6:	83 06       	.word	0x0683;	????	
    fcd8:	0d 3f       	jmp	$-484    	;abs 0xfaf4
    fcda:	8d 02       	.word	0x028d;	????	
    fcdc:	fc 7f 70 70 	subc.b	@r15+,	28784(r12);0x7070(r12)
    fce0:	fd 7f 07 07 	subc.b	@r15+,	1799(r13);0x0707(r13)
    fce4:	f3 ff       	and.b	@r15+,	#1	;r3 As==01
    fce6:	dd 30       	jn	$+444    	;abs 0xfea2
    fce8:	0c c3       	bic	#0,	r12	;r3 As==00
    fcea:	0c 5c       	rla	r12		
    fcec:	37 0c       	.word	0x0c37;	????	
    fcee:	07 e3       	xor	#0,	r7	;r3 As==00
    fcf0:	8d 00       	.word	0x008d;	????	
    fcf2:	60 62       	addc.b	#4,	r0	;r2 As==10
    fcf4:	28 28       	jnc	$+82     	;abs 0xfd46
    fcf6:	e0 a2 2c fa 	dadd.b	#4,	-1492(r0);r2 As==10, PC rel. 0xf724
    fcfa:	3a a2       	dadd	#8,	r10	;r2 As==11
    fcfc:	e0 64 a8 aa 	addc.b	@r4,	-21848(r0);PC rel. 0xa7a6
    fd00:	ac a9 2a 0a 	dadd	@r9,	2602(r12);0x0a2a(r12)
    fd04:	92 a0 b6 ac 	dadd	-21322(r0),&0xaeae	;PC rel. 0xa9bc
    fd08:	ae ae 
    fd0a:	8a 2a       	jnc	$-746    	;abs 0xfa20
    fd0c:	ae 03       	.word	0x03ae;	????	
    fd0e:	b8 00       	.word	0x00b8;	????	
    fd10:	00 e8       	xor	r8,	r0	
    fd12:	0a ec       	xor	r12,	r10	
    fd14:	2a ab       	dadd	@r11,	r10	
    fd16:	88 ab 2b eb 	dadd	r11,	-5333(r8);0xeb2b(r8)
    fd1a:	8b e0 0b 00 	xor	r0,	11(r11)	;0x000b(r11)
    fd1e:	ee b8 82 0a 	bit.b	@r8,	2690(r14);0x0a82(r14)
    fd22:	82 a0 24 2b 	dadd	r0,	&0x2b24	
    fd26:	02 80       	sub	r0,	r2	
    fd28:	02 40       	mov	r0,	r2	
    fd2a:	40 c0       	bic.b	r0,	r0	
    fd2c:	34 13       	reti			;return from interupt
    fd2e:	00 c7       	bic	r7,	r0	
    fd30:	a8 00       	.word	0x00a8;	????	
    fd32:	1c 78 2a ba 	subc	-17878(r8),r12	;0xba2a(r8)
    fd36:	90 2f       	jc	$-222    	;abs 0xfc58
    fd38:	e0 2c       	jc	$+450    	;abs 0xfefa
    fd3a:	aa 68 11 13 	addc	@r8,	4881(r10);0x1311(r10)
    fd3e:	83 28       	jnc	$+264    	;abs 0xfe46
    fd40:	0a a2       	dadd	r2,	r10	
    fd42:	28 2a       	jnc	$-942    	;abs 0xf994
    fd44:	a2 11       	sxt	#4		;r2 As==10
    fd46:	c1 00       	.word	0x00c1;	????	
    fd48:	a0 80 60 62 	sub	@r0,	25184(r0);PC rel. 0x5faa
    fd4c:	88 a0 a8 98 	dadd	r0,	-26456(r8);0x98a8(r8)
    fd50:	90 2b       	jnc	$-222    	;abs 0xfc72
    fd52:	1c a8 70 60 	dadd	24688(r8),r12	;0x6070(r8)
    fd56:	8a 02       	.word	0x028a;	????	
    fd58:	e2 b1 82 34 	bit.b	@r1,	&0x3482	
    fd5c:	73 d4       	.word	0xd473;	????	Illegal as 2-op instr
    fd5e:	14 64 92 a3 	addc	-23662(r4),r4	;0xa392(r4)
    fd62:	aa e3 c8 88 	xor	#2,	-30520(r10);r3 As==10, 0x88c8(r10)
    fd66:	00 80       	sub	r0,	r0	
    fd68:	82 0c       	.word	0x0c82;	????	
    fd6a:	12 11 a4 84 	rra	&0x84a4	
    fd6e:	50 b4 00 02 	bit.b	512(r4),r0	;0x0200(r4)
    fd72:	a8 48 48 31 	mov	@r8,	12616(r8);0x3148(r8)
    fd76:	33 33       	jn	$-408    	;abs 0xfbde
    fd78:	33 33       	jn	$-408    	;abs 0xfbe0
    fd7a:	99 00       	.word	0x0099;	????	
    fd7c:	08 85       	sub	r5,	r8	
    fd7e:	51 50 68 14 	add.b	5224(r0),r1	;PC rel. 0x11e8
    fd82:	44 55       	add.b	r5,	r4	
    fd84:	cc 0c       	.word	0x0ccc;	????	
    fd86:	91 2a       	jnc	$-732    	;abs 0xfaaa
    fd88:	52 18       	.word	0x1852;	????	
    fd8a:	56 81 21 42 	sub.b	16929(r1),r6	;0x4221(r1)
    fd8e:	cc 71 c8 0c 	subc.b	r1,	3272(r12);0x0cc8(r12)
    fd92:	31 55       	add	@r5+,	r1	
    fd94:	8c 80 54 8e 	sub	r0,	-29100(r12);0x8e54(r12)
    fd98:	68 95       	cmp.b	@r5,	r8	
    fd9a:	90 d8 61 44 	bis	17505(r8),22613(r0);0x4461(r8), PC rel. 0x55f3
    fd9e:	55 58 
    fda0:	45 51       	add.b	r1,	r5	
    fda2:	32 a2       	dadd	#8,	r2	;r2 As==11
    fda4:	85 44 55 48 	mov	r4,	18517(r5);0x4855(r5)
    fda8:	45 03       	.word	0x0345;	????	
    fdaa:	cc 22       	jnz	$-614    	;abs 0xfb44
    fdac:	04 41       	mov	r1,	r4	
    fdae:	10 08       	.word	0x0810;	????	
    fdb0:	0b 00       	.word	0x000b;	????	
    fdb2:	3f 60 fe ff 	addc	#-2,	r15	;#0xfffe
    fdb6:	ff ff ff ff 	and.b	@r15+,	-1(r15)	;0xffff(r15)
    fdba:	ff ff ff ff 	and.b	@r15+,	-1(r15)	;0xffff(r15)
    fdbe:	0a 80       	sub	r0,	r10	
    fdc0:	62 80       	sub.b	@r0,	r2	
    fdc2:	0a 2c       	jc	$+22     	;abs 0xfdd8
    fdc4:	28 2c       	jc	$+82     	;abs 0xfe16
    fdc6:	c0 9c c4 4d 	cmp.b	r12,	19908(r0);PC rel. 0x4b8c
    fdca:	d3 34       	jge	$+424    	;abs 0xff72
    fdcc:	cd 0c       	.word	0x0ccd;	????	
    fdce:	33 07       	.word	0x0733;	????	
    fdd0:	30 c3       	bic	#-1,	r0	;r3 As==11
    fdd2:	40 0c       	.word	0x0c40;	????	
    fdd4:	71 1c       	.word	0x1c71;	????	
    fdd6:	33 88       	.word	0x8833;	????	Illegal as 2-op instr
    fdd8:	a0 1a       	.word	0x1aa0;	????	
    fdda:	23 28       	jnc	$+72     	;abs 0xfe22
    fddc:	a3 10       	swpb	#2		;r3 As==10
    fdde:	0c a3       	dadc	r12		
    fde0:	b4 06       	.word	0x06b4;	????	
    fde2:	cb 10       	.word	0x10cb;	????	
    fde4:	70 a4       	dadd.b	@r4+,	r0	
    fde6:	ea 0c       	.word	0x0cea;	????	
    fde8:	b1 8e eb 28 	sub	@r14+,	10475(r1);0x28eb(r1)
    fdec:	2c 3a       	jl	$-934    	;abs 0xfa46
    fdee:	0c 32       	jn	$-998    	;abs 0xfa08
    fdf0:	30 cc       	bic	@r12+,	r0	
    fdf2:	32 c5       	bic	@r5+,	r2	
    fdf4:	a8 a8 08 00 	dadd	@r8,	8(r8)	;0x0008(r8)
    fdf8:	06 0a       	.word	0x0a06;	????	
    fdfa:	ee ae 22 27 	dadd.b	@r14,	10018(r14);0x2722(r14)
    fdfe:	e9 d2 fc bf 	bis.b	#4,	-16388(r9);r2 As==10, 0xbffc(r9)
    fe02:	33 33       	jn	$-408    	;abs 0xfc6a
    fe04:	fc 3f       	jmp	$-6      	;abs 0xfdfe
    fe06:	30 d3       	bis	#-1,	r0	;r3 As==11
    fe08:	fc 7f 9e 9e 	subc.b	@r15+,	-24930(r12);0x9e9e(r12)
    fe0c:	98 68 8a c2 	addc	-15734(r8),17580(r8);0xc28a(r8), 0x44ac(r8)
    fe10:	ac 44 
    fe12:	04 4b       	mov	r11,	r4	
    fe14:	33 3f       	jmp	$-408    	;abs 0xfc7c
    fe16:	c3 8a       	sub.b	r10,	#1	;r3 As==01
    fe18:	30 3c       	jmp	$+98     	;abs 0xfe7a
    fe1a:	c4 02       	.word	0x02c4;	????	
    fe1c:	00 b0       	bit	r0,	r0	
    fe1e:	8b 00       	.word	0x008b;	????	
    fe20:	00 00       	.word	0x0000;	????	
    fe22:	02 a2       	dadd	r2,	r2	
    fe24:	0a 20       	jnz	$+22     	;abs 0xfe3a
    fe26:	a0 a3 08 0b 	dadd	#2,	2824(r0);r3 As==10, PC rel. 0x0930
    fe2a:	ac 2a       	jnc	$-678    	;abs 0xfb84
    fe2c:	f3 ff       	and.b	@r15+,	#1	;r3 As==01
    fe2e:	8c 0c       	.word	0x0c8c;	????	
    fe30:	00 00       	.word	0x0000;	????	
    fe32:	0a 20       	jnz	$+22     	;abs 0xfe48
    fe34:	02 00       	.word	0x0002;	????	
    fe36:	a0 00       	.word	0x00a0;	????	
    fe38:	2a c2       	bic	#4,	r10	;r2 As==10
    fe3a:	02 20       	jnz	$+6      	;abs 0xfe40
    fe3c:	ba 00       	.word	0x00ba;	????	
    fe3e:	20 48       	br	@r8		
    fe40:	ac 8a 88 2a 	sub	@r10,	10888(r12);0x2a88(r12)
    fe44:	80 80 8e 02 	sub	r0,	654(r0)	;PC rel. 0x00d4
    fe48:	2a a8       	dadd	@r8,	r10	
    fe4a:	20 0a       	.word	0x0a20;	????	
    fe4c:	84 08       	.word	0x0884;	????	
    fe4e:	21 61       	addc	@r1,	r1	
    fe50:	b4 c0 00 00 	bic	#0,	0(r4)	;#0x0000, 0x0000(r4)
    fe54:	00 00 
	...
    feae:	00 00       	.word	0x0000;	????	
    feb0:	00 80       	sub	r0,	r0	

0000feb2 <_op_fcn>:
    feb2:	4e cb       	bic.b	r11,	r14	
    feb4:	0e d1       	bis	r1,	r14	
    feb6:	e4 d0 02 cb 	bis.b	@r0,	-13566(r4);0xcb02(r4)
    feba:	02 cb       	bic	r11,	r2	
    febc:	2c d1       	bis	@r1,	r12	
    febe:	e4 d0 02 cb 	bis.b	@r0,	-13566(r4);0xcb02(r4)
    fec2:	02 cb       	bic	r11,	r2	
    fec4:	64 d1       	bis.b	@r1,	r4	
    fec6:	e4 d0 02 cb 	bis.b	@r0,	-13566(r4);0xcb02(r4)
    feca:	a4 d1 4e cb 	bis	@r1,	-13490(r4);0xcb4e(r4)
    fece:	e4 d0 02 cb 	bis.b	@r0,	-13566(r4);0xcb02(r4)
    fed2:	4e cb       	bic.b	r11,	r14	
    fed4:	50 cb e4 d0 	bic.b	-12060(r11),r0	;0xd0e4(r11)
    fed8:	02 cb       	bic	r11,	r2	
    feda:	02 cb       	bic	r11,	r2	
    fedc:	6c cc       	bic.b	@r12,	r12	
    fede:	e4 d0 4e cb 	bis.b	@r0,	-13490(r4);0xcb4e(r4)
    fee2:	02 cb       	bic	r11,	r2	
    fee4:	5e cb e4 d0 	bic.b	-12060(r11),r14	;0xd0e4(r11)
    fee8:	02 cb       	bic	r11,	r2	
    feea:	02 cb       	bic	r11,	r2	
    feec:	76 cb       	bic.b	@r11+,	r6	
    feee:	e4 d0 02 cb 	bis.b	@r0,	-13566(r4);0xcb02(r4)
    fef2:	4e cb       	bic.b	r11,	r14	
    fef4:	2a cb       	bic	@r11,	r10	
    fef6:	e4 d0 88 cc 	bis.b	@r0,	-13176(r4);0xcc88(r4)
    fefa:	02 cb       	bic	r11,	r2	
    fefc:	02 cb       	bic	r11,	r2	
    fefe:	e4 d0 a0 cc 	bis.b	@r0,	-13152(r4);0xcca0(r4)
    ff02:	02 cb       	bic	r11,	r2	
    ff04:	02 cb       	bic	r11,	r2	
    ff06:	e4 d0 e2 cd 	bis.b	@r0,	-12830(r4);0xcde2(r4)
    ff0a:	4e cb       	bic.b	r11,	r14	
    ff0c:	02 cb       	bic	r11,	r2	
    ff0e:	e4 d0 bc cc 	bis.b	@r0,	-13124(r4);0xccbc(r4)
    ff12:	02 cb       	bic	r11,	r2	
    ff14:	02 cb       	bic	r11,	r2	
    ff16:	e4 d0 90 cc 	bis.b	@r0,	-13168(r4);0xcc90(r4)
    ff1a:	a2 d1 02 cb 	bis	@r1,	&0xcb02	
    ff1e:	e4 d0 02 cb 	bis.b	@r0,	-13566(r4);0xcb02(r4)
    ff22:	02 cb       	bic	r11,	r2	
    ff24:	02 cb       	bic	r11,	r2	
    ff26:	e4 d0 02 cb 	bis.b	@r0,	-13566(r4);0xcb02(r4)
    ff2a:	02 cb       	bic	r11,	r2	
    ff2c:	02 cb       	bic	r11,	r2	
    ff2e:	e4 d0 4e cb 	bis.b	@r0,	-13490(r4);0xcb4e(r4)

0000ff32 <_op_fcn_0100.2116>:
    ff32:	da cf 58 d0 	bic.b	-12200(r15),-12132(r10);0xd058(r15), 0xd09c(r10)
    ff36:	9c d0 
    ff38:	f8 d0 4e cb 	bis.b	#-13490,-12372(r8);#0xcb4e, 0xcfac(r8)
    ff3c:	ac cf 

0000ff3a <_op_fcn_02xx.2120>:
    ff3a:	4e cb       	bic.b	r11,	r14	
    ff3c:	ac cf 06 cd 	bic	@r15,	-13050(r12);0xcd06(r12)
    ff40:	64 cd       	bic.b	@r13,	r4	

0000ff42 <_op_fcn_0200.2122>:
    ff42:	74 cf       	bic.b	@r15+,	r4	
    ff44:	8c cb 9a d1 	bic	r11,	-11878(r12);0xd19a(r12)
    ff48:	92 d1 c8 cb 	bis	-13368(r1),&0xcbc8	;0xcbc8(r1)
    ff4c:	c8 cb 
    ff4e:	c8 cb c8 cb 	bic.b	r11,	-13368(r8);0xcbc8(r8)
    ff52:	76 ce       	bic.b	@r14+,	r6	
    ff54:	02 cf       	bic	r15,	r2	
    ff56:	c0 ce 36 ce 	bic.b	r14,	-12746(r0);PC rel. 0xcd8e
    ff5a:	58 cb 02 cb 	bic.b	-13566(r11),r8	;0xcb02(r11)
    ff5e:	4a cc       	bic.b	r12,	r10	
    ff60:	56 cc 00 d0 	bic.b	-12288(r12),r6	;0xd000(r12)

0000ff62 <_op_fcn_0300.2118>:
    ff62:	00 d0       	bis	r0,	r0	
    ff64:	26 d0       	bis	@r0,	r6	
    ff66:	c0 d0 8a d0 	bis.b	r0,	-12150(r0);PC rel. 0xcff2

0000ff6a <p_set_map>:
    ff6a:	0e 04       	.word	0x040e;	????	
    ff6c:	07 08       	.word	0x0807;	????	
    ff6e:	0b 02       	.word	0x020b;	????	
    ff70:	0a 0c       	.word	0x0c0a;	????	
    ff72:	01 03       	.word	0x0301;	????	
    ff74:	0d 06       	.word	0x060d;	????	
    ff76:	00 09       	.word	0x0900;	????	
    ff78:	05 0e       	.word	0x0e05;	????	

0000ff7a <p_test_map>:
    ff7a:	04 08       	.word	0x0804;	????	
    ff7c:	0c 02       	.word	0x020c;	????	
    ff7e:	09 01       	.word	0x0109;	????	
    ff80:	06 03       	.word	0x0306;	????	
    ff82:	01 0d       	.word	0x0d01;	????	
    ff84:	05 00       	.word	0x0005;	????	
    ff86:	0b 0a       	.word	0x0a0b;	????	
    ff88:	07 04       	.word	0x0407;	????	

0000ff8a <digit_map_p2>:
    ff8a:	40 00       	.word	0x0040;	????	
    ff8c:	80 00       	.word	0x0080;	????	
    ff8e:	00 00       	.word	0x0000;	????	
    ff90:	01 00       	.word	0x0001;	????	
    ff92:	00 02       	.word	0x0200;	????	
	...

0000ff96 <digit_map_p1>:
    ff96:	00 01       	.word	0x0100;	????	
    ff98:	00 02       	.word	0x0200;	????	
    ff9a:	04 08       	.word	0x0804;	????	
    ff9c:	00 10       	rrc	r0		
    ff9e:	20 00       	.word	0x0020;	????	
    ffa0:	40 80       	sub.b	r0,	r0	

Disassembly of section .data:

00000200 <__data_start>:
 200:	41 44       	mov.b	r4,	r1	
 202:	47 4a       	mov.b	r10,	r7	
 204:	4d 50       	add.b	r0,	r13	
 206:	54 57 5b 01 	add.b	347(r7),r4	;0x015b(r7)

00000209 <_pgm_run>:
 209:	01 01       	.word	0x0101;	????	

0000020a <_clicks>:
 20a:	01 00       	.word	0x0001;	????	

0000020c <sim_load_segments>:
 20c:	b0 d1       	Address 0x0000020e is out of bounds.
bis	@r1+,	-1(r0)	;PC rel. 0x020d

Disassembly of section .bss:

0000020e <__bss_start>:
	...

0000020f <_digit>:
	...

00000210 <_data>:
	...

00000211 <_key>:
	...

00000212 <_state>:
	...

00000214 <_ticks>:
	...

00000216 <_act_reg>:
	...

00000360 <_greetings>:
	...

0000036c <_is_spice>:
	...

0000036e <_key_map>:
	...

Disassembly of section .noinit:

00000370 <__wdt_clear_value>:
	...

Disassembly of section .vectors:

0000ffe0 <__ivtbl_16>:
    ffe0:	fe ca fe ca 	bic.b	@r10+,	-13570(r14);0xcafe(r14)
    ffe4:	fe ca fe ca 	bic.b	@r10+,	-13570(r14);0xcafe(r14)
    ffe8:	fe ca fe ca 	bic.b	@r10+,	-13570(r14);0xcafe(r14)
    ffec:	fe ca fe ca 	bic.b	@r10+,	-13570(r14);0xcafe(r14)
    fff0:	fe ca b2 d6 	bic.b	@r10+,	-10574(r14);0xd6b2(r14)
    fff4:	fe ca fe ca 	bic.b	@r10+,	-13570(r14);0xcafe(r14)
    fff8:	fe ca fe ca 	bic.b	@r10+,	-13570(r14);0xcafe(r14)
    fffc:	fe ca 00 c0 	bic.b	@r10+,	-16384(r14);0xc000(r14)

Disassembly of section .debug_aranges:

00000000 <.debug_aranges>:
   0:	10 00       	.word	0x0010;	????	
   2:	00 00       	.word	0x0000;	????	
   4:	02 00       	.word	0x0002;	????	
   6:	00 00       	.word	0x0000;	????	
   8:	00 00       	.word	0x0000;	????	
   a:	02 00       	.word	0x0002;	????	
   c:	fe d8 08 00 	bis.b	@r8+,	8(r14)	;0x0008(r14)
  10:	00 00       	.word	0x0000;	????	
  12:	00 00       	.word	0x0000;	????	
  14:	10 00       	.word	0x0010;	????	
  16:	00 00       	.word	0x0000;	????	
  18:	02 00       	.word	0x0002;	????	
  1a:	8d 00       	.word	0x008d;	????	
  1c:	00 00       	.word	0x0000;	????	
  1e:	02 00       	.word	0x0002;	????	
  20:	06 d9       	bis	r9,	r6	
  22:	18 00       	.word	0x0018;	????	
  24:	00 00       	.word	0x0000;	????	
  26:	00 00       	.word	0x0000;	????	
  28:	10 00       	.word	0x0010;	????	
  2a:	00 00       	.word	0x0000;	????	
  2c:	02 00       	.word	0x0002;	????	
  2e:	1a 01       	.word	0x011a;	????	
  30:	00 00       	.word	0x0000;	????	
  32:	02 00       	.word	0x0002;	????	
  34:	1e d9 22 00 	bis	34(r9),	r14	;0x0022(r9)
  38:	00 00       	.word	0x0000;	????	
  3a:	00 00       	.word	0x0000;	????	
  3c:	10 00       	.word	0x0010;	????	
  3e:	00 00       	.word	0x0000;	????	
  40:	02 00       	.word	0x0002;	????	
  42:	a7 01       	.word	0x01a7;	????	
  44:	00 00       	.word	0x0000;	????	
  46:	02 00       	.word	0x0002;	????	
  48:	40 d9       	bis.b	r9,	r0	
  4a:	fa 00       	.word	0x00fa;	????	
  4c:	00 00       	.word	0x0000;	????	
  4e:	00 00       	.word	0x0000;	????	
  50:	10 00       	.word	0x0010;	????	
  52:	00 00       	.word	0x0000;	????	
  54:	02 00       	.word	0x0002;	????	
  56:	ba 02       	.word	0x02ba;	????	
  58:	00 00       	.word	0x0000;	????	
  5a:	02 00       	.word	0x0002;	????	
  5c:	00 c0       	bic	r0,	r0	
  5e:	0c 00       	.word	0x000c;	????	
  60:	00 00       	.word	0x0000;	????	
  62:	00 00       	.word	0x0000;	????	
  64:	10 00       	.word	0x0010;	????	
  66:	00 00       	.word	0x0000;	????	
  68:	02 00       	.word	0x0002;	????	
  6a:	2e 03       	.word	0x032e;	????	
  6c:	00 00       	.word	0x0000;	????	
  6e:	02 00       	.word	0x0002;	????	
  70:	0c c0       	bic	r0,	r12	
  72:	04 00       	.word	0x0004;	????	
  74:	00 00       	.word	0x0000;	????	
  76:	00 00       	.word	0x0000;	????	
  78:	10 00       	.word	0x0010;	????	
  7a:	00 00       	.word	0x0000;	????	
  7c:	02 00       	.word	0x0002;	????	
  7e:	a2 03       	.word	0x03a2;	????	
  80:	00 00       	.word	0x0000;	????	
  82:	02 00       	.word	0x0002;	????	
  84:	10 c0 18 00 	bic	24(r0),	r0	;PC rel. 0x009e
  88:	00 00       	.word	0x0000;	????	
  8a:	00 00       	.word	0x0000;	????	
  8c:	10 00       	.word	0x0010;	????	
  8e:	00 00       	.word	0x0000;	????	
  90:	02 00       	.word	0x0002;	????	
  92:	16 04       	.word	0x0416;	????	
  94:	00 00       	.word	0x0000;	????	
  96:	02 00       	.word	0x0002;	????	
  98:	28 c0       	bic	@r0,	r8	
  9a:	16 00       	.word	0x0016;	????	
  9c:	00 00       	.word	0x0000;	????	
  9e:	00 00       	.word	0x0000;	????	
  a0:	10 00       	.word	0x0010;	????	
  a2:	00 00       	.word	0x0000;	????	
  a4:	02 00       	.word	0x0002;	????	
  a6:	8a 04       	.word	0x048a;	????	
  a8:	00 00       	.word	0x0000;	????	
  aa:	02 00       	.word	0x0002;	????	
  ac:	f8 ca 06 00 	bic.b	@r10+,	6(r8)	;0x0006(r8)
  b0:	00 00       	.word	0x0000;	????	
  b2:	00 00       	.word	0x0000;	????	
  b4:	10 00       	.word	0x0010;	????	
  b6:	00 00       	.word	0x0000;	????	
  b8:	02 00       	.word	0x0002;	????	
  ba:	fe 04       	.word	0x04fe;	????	
  bc:	00 00       	.word	0x0000;	????	
  be:	02 00       	.word	0x0002;	????	
  c0:	3a da       	bis	@r10+,	r10	
  c2:	02 00       	.word	0x0002;	????	
  c4:	00 00       	.word	0x0000;	????	
	...

Disassembly of section .debug_info:

00000000 <.debug_info>:
   0:	89 00       	.word	0x0089;	????	
   2:	00 00       	.word	0x0000;	????	
   4:	02 00       	.word	0x0002;	????	
   6:	00 00       	.word	0x0000;	????	
   8:	00 00       	.word	0x0000;	????	
   a:	02 01       	.word	0x0102;	????	
   c:	00 00       	.word	0x0000;	????	
   e:	00 00       	.word	0x0000;	????	
  10:	fe d8 06 d9 	bis.b	@r8+,	-9978(r14);0xd906(r14)
  14:	2e 2e       	jc	$-930    	;abs 0xfc72
  16:	2f 2e       	jc	$-928    	;abs 0xfc76
  18:	2e 2f       	jc	$-418    	;abs 0xfe76
  1a:	2e 2e       	jc	$-930    	;abs 0xfc78
  1c:	2f 2e       	jc	$-928    	;abs 0xfc7c
  1e:	2e 2f       	jc	$-418    	;abs 0xfe7c
  20:	67 63       	addc.b	#2,	r7	;r3 As==10
  22:	63 2d       	jc	$+712    	;abs 0x2ea
  24:	34 2e       	jc	$-918    	;abs 0xfc8e
  26:	36 2e       	jc	$-914    	;abs 0xfc94
  28:	33 2f       	jc	$-408    	;abs 0xfe90
  2a:	6c 69       	addc.b	@r9,	r12	
  2c:	62 67       	addc.b	@r7,	r2	
  2e:	63 63       	.word	0x6363;	????	Illegal as 2-op instr
  30:	2f 2e       	jc	$-928    	;abs 0xfc90
  32:	2e 2f       	jc	$-418    	;abs 0xfe90
  34:	67 63       	addc.b	#2,	r7	;r3 As==10
  36:	63 2f       	jc	$-312    	;abs 0xfefe
  38:	63 6f       	.word	0x6f63;	????	Illegal as 2-op instr
  3a:	6e 66       	addc.b	@r6,	r14	
  3c:	69 67       	addc.b	@r7,	r9	
  3e:	2f 6d       	addc	@r13,	r15	
  40:	73 70       	.word	0x7073;	????	Illegal as 2-op instr
  42:	34 33       	jn	$-406    	;abs 0xfeac
  44:	30 2f       	jc	$-414    	;abs 0xfea6
  46:	6c 69       	addc.b	@r9,	r12	
  48:	62 67       	addc.b	@r7,	r2	
  4a:	63 63       	.word	0x6363;	????	Illegal as 2-op instr
  4c:	2e 53       	incd	r14		
  4e:	00 2f       	jc	$-510    	;abs 0xfe50
  50:	72 6f       	addc.b	@r15+,	r2	
  52:	6f 74       	subc.b	@r4,	r15	
  54:	2f 6d       	addc	@r13,	r15	
  56:	73 70       	.word	0x7073;	????	Illegal as 2-op instr
  58:	67 63       	addc.b	#2,	r7	;r3 As==10
  5a:	63 2d       	jc	$+712    	;abs 0x322
  5c:	32 30       	jn	$+102    	;abs 0xc2
  5e:	31 32       	jn	$-924    	;abs 0xfcc2
  60:	30 34       	jge	$+98     	;abs 0xc2
  62:	30 36       	jge	$-926    	;abs 0xfcc4
  64:	2f 42       	mov	#4,	r15	;r2 As==10
  66:	55 49 4c 44 	mov.b	17484(r9),r5	;0x444c(r9)
  6a:	2f 67       	addc	@r7,	r15	
  6c:	63 63       	.word	0x6363;	????	Illegal as 2-op instr
  6e:	2f 6d       	addc	@r13,	r15	
  70:	73 70       	.word	0x7073;	????	Illegal as 2-op instr
  72:	34 33       	jn	$-406    	;abs 0xfedc
  74:	30 2f       	jc	$-414    	;abs 0xfed6
  76:	6c 69       	addc.b	@r9,	r12	
  78:	62 67       	addc.b	@r7,	r2	
  7a:	63 63       	.word	0x6363;	????	Illegal as 2-op instr
  7c:	00 47       	br	r7		
  7e:	4e 55       	add.b	r5,	r14	
  80:	20 41       	br	@r1		
  82:	53 20       	jnz	$+168    	;abs 0x12a
  84:	32 2e       	jc	$-922    	;abs 0xfcea
  86:	32 31       	jn	$+614    	;abs 0x2ec
  88:	2e 31       	jn	$+606    	;abs 0x2e6
  8a:	00 01       	.word	0x0100;	????	
  8c:	80 89 00 00 	sub	r9,	0(r0)	;PC rel. 0x008e
  90:	00 02       	.word	0x0200;	????	
  92:	00 14       	.word	0x1400;	????	
  94:	00 00       	.word	0x0000;	????	
  96:	00 02       	.word	0x0200;	????	
  98:	01 6b       	addc	r11,	r1	
  9a:	00 00       	.word	0x0000;	????	
  9c:	00 06       	.word	0x0600;	????	
  9e:	d9 1e       	.word	0x1ed9;	????	
  a0:	d9 2e       	jc	$-588    	;abs 0xfe54
  a2:	2e 2f       	jc	$-418    	;abs 0xff00
  a4:	2e 2e       	jc	$-930    	;abs 0xfd02
  a6:	2f 2e       	jc	$-928    	;abs 0xfd06
  a8:	2e 2f       	jc	$-418    	;abs 0xff06
  aa:	2e 2e       	jc	$-930    	;abs 0xfd08
  ac:	2f 67       	addc	@r7,	r15	
  ae:	63 63       	.word	0x6363;	????	Illegal as 2-op instr
  b0:	2d 34       	jge	$+92     	;abs 0x10c
  b2:	2e 36       	jge	$-930    	;abs 0xfd10
  b4:	2e 33       	jn	$-418    	;abs 0xff12
  b6:	2f 6c       	addc	@r12,	r15	
  b8:	69 62       	addc.b	#4,	r9	;r2 As==10
  ba:	67 63       	addc.b	#2,	r7	;r3 As==10
  bc:	63 2f       	jc	$-312    	;abs 0xff84
  be:	2e 2e       	jc	$-930    	;abs 0xfd1c
  c0:	2f 67       	addc	@r7,	r15	
  c2:	63 63       	.word	0x6363;	????	Illegal as 2-op instr
  c4:	2f 63       	addc	#2,	r15	;r3 As==10
  c6:	6f 6e       	addc.b	@r14,	r15	
  c8:	66 69       	addc.b	@r9,	r6	
  ca:	67 2f       	jc	$-304    	;abs 0xff9a
  cc:	6d 73       	subc.b	#2,	r13	;r3 As==10
  ce:	70 34       	jge	$+226    	;abs 0x1b0
  d0:	33 30       	jn	$+104    	;abs 0x138
  d2:	2f 6c       	addc	@r12,	r15	
  d4:	69 62       	addc.b	#4,	r9	;r2 As==10
  d6:	67 63       	addc.b	#2,	r7	;r3 As==10
  d8:	63 2e       	jc	$-824    	;abs 0xfda0
  da:	53 00       	.word	0x0053;	????	
  dc:	2f 72       	subc	#4,	r15	;r2 As==10
  de:	6f 6f       	addc.b	@r15,	r15	
  e0:	74 2f       	jc	$-278    	;abs 0xffca
  e2:	6d 73       	subc.b	#2,	r13	;r3 As==10
  e4:	70 67       	addc.b	@r7+,	r0	
  e6:	63 63       	.word	0x6363;	????	Illegal as 2-op instr
  e8:	2d 32       	jn	$-932    	;abs 0xfd44
  ea:	30 31       	jn	$+610    	;abs 0x34c
  ec:	32 30       	jn	$+102    	;abs 0x152
  ee:	34 30       	jn	$+106    	;abs 0x158
  f0:	36 2f       	jc	$-402    	;abs 0xff5e
  f2:	42 55       	add.b	r5,	r2	
  f4:	49 4c       	mov.b	r12,	r9	
  f6:	44 2f       	jc	$-374    	;abs 0xff80
  f8:	67 63       	addc.b	#2,	r7	;r3 As==10
  fa:	63 2f       	jc	$-312    	;abs 0xffc2
  fc:	6d 73       	subc.b	#2,	r13	;r3 As==10
  fe:	70 34       	jge	$+226    	;abs 0x1e0
 100:	33 30       	jn	$+104    	;abs 0x168
 102:	2f 6c       	addc	@r12,	r15	
 104:	69 62       	addc.b	#4,	r9	;r2 As==10
 106:	67 63       	addc.b	#2,	r7	;r3 As==10
 108:	63 00       	.word	0x0063;	????	
 10a:	47 4e       	mov.b	r14,	r7	
 10c:	55 20       	jnz	$+172    	;abs 0x1b8
 10e:	41 53       	add.b	#0,	r1	;r3 As==00
 110:	20 32       	jn	$-958    	;abs 0xfd52
 112:	2e 32       	jn	$-930    	;abs 0xfd70
 114:	31 2e       	jc	$-924    	;abs 0xfd78
 116:	31 00       	.word	0x0031;	????	
 118:	01 80       	sub	r0,	r1	
 11a:	89 00       	.word	0x0089;	????	
 11c:	00 00       	.word	0x0000;	????	
 11e:	02 00       	.word	0x0002;	????	
 120:	28 00       	.word	0x0028;	????	
 122:	00 00       	.word	0x0000;	????	
 124:	02 01       	.word	0x0102;	????	
 126:	df 00       	.word	0x00df;	????	
 128:	00 00       	.word	0x0000;	????	
 12a:	1e d9 40 d9 	bis	-9920(r9),r14	;0xd940(r9)
 12e:	2e 2e       	jc	$-930    	;abs 0xfd8c
 130:	2f 2e       	jc	$-928    	;abs 0xfd90
 132:	2e 2f       	jc	$-418    	;abs 0xff90
 134:	2e 2e       	jc	$-930    	;abs 0xfd92
 136:	2f 2e       	jc	$-928    	;abs 0xfd96
 138:	2e 2f       	jc	$-418    	;abs 0xff96
 13a:	67 63       	addc.b	#2,	r7	;r3 As==10
 13c:	63 2d       	jc	$+712    	;abs 0x404
 13e:	34 2e       	jc	$-918    	;abs 0xfda8
 140:	36 2e       	jc	$-914    	;abs 0xfdae
 142:	33 2f       	jc	$-408    	;abs 0xffaa
 144:	6c 69       	addc.b	@r9,	r12	
 146:	62 67       	addc.b	@r7,	r2	
 148:	63 63       	.word	0x6363;	????	Illegal as 2-op instr
 14a:	2f 2e       	jc	$-928    	;abs 0xfdaa
 14c:	2e 2f       	jc	$-418    	;abs 0xffaa
 14e:	67 63       	addc.b	#2,	r7	;r3 As==10
 150:	63 2f       	jc	$-312    	;abs 0x18
 152:	63 6f       	.word	0x6f63;	????	Illegal as 2-op instr
 154:	6e 66       	addc.b	@r6,	r14	
 156:	69 67       	addc.b	@r7,	r9	
 158:	2f 6d       	addc	@r13,	r15	
 15a:	73 70       	.word	0x7073;	????	Illegal as 2-op instr
 15c:	34 33       	jn	$-406    	;abs 0xffc6
 15e:	30 2f       	jc	$-414    	;abs 0xffc0
 160:	6c 69       	addc.b	@r9,	r12	
 162:	62 67       	addc.b	@r7,	r2	
 164:	63 63       	.word	0x6363;	????	Illegal as 2-op instr
 166:	2e 53       	incd	r14		
 168:	00 2f       	jc	$-510    	;abs 0xff6a
 16a:	72 6f       	addc.b	@r15+,	r2	
 16c:	6f 74       	subc.b	@r4,	r15	
 16e:	2f 6d       	addc	@r13,	r15	
 170:	73 70       	.word	0x7073;	????	Illegal as 2-op instr
 172:	67 63       	addc.b	#2,	r7	;r3 As==10
 174:	63 2d       	jc	$+712    	;abs 0x43c
 176:	32 30       	jn	$+102    	;abs 0x1dc
 178:	31 32       	jn	$-924    	;abs 0xfddc
 17a:	30 34       	jge	$+98     	;abs 0x1dc
 17c:	30 36       	jge	$-926    	;abs 0xfdde
 17e:	2f 42       	mov	#4,	r15	;r2 As==10
 180:	55 49 4c 44 	mov.b	17484(r9),r5	;0x444c(r9)
 184:	2f 67       	addc	@r7,	r15	
 186:	63 63       	.word	0x6363;	????	Illegal as 2-op instr
 188:	2f 6d       	addc	@r13,	r15	
 18a:	73 70       	.word	0x7073;	????	Illegal as 2-op instr
 18c:	34 33       	jn	$-406    	;abs 0xfff6
 18e:	30 2f       	jc	$-414    	;abs 0xfff0
 190:	6c 69       	addc.b	@r9,	r12	
 192:	62 67       	addc.b	@r7,	r2	
 194:	63 63       	.word	0x6363;	????	Illegal as 2-op instr
 196:	00 47       	br	r7		
 198:	4e 55       	add.b	r5,	r14	
 19a:	20 41       	br	@r1		
 19c:	53 20       	jnz	$+168    	;abs 0x244
 19e:	32 2e       	jc	$-922    	;abs 0xfe04
 1a0:	32 31       	jn	$+614    	;abs 0x406
 1a2:	2e 31       	jn	$+606    	;abs 0x400
 1a4:	00 01       	.word	0x0100;	????	
 1a6:	80 0f       	.word	0x0f80;	????	
 1a8:	01 00       	.word	0x0001;	????	
 1aa:	00 02       	.word	0x0200;	????	
 1ac:	00 3c       	jmp	$+2      	;abs 0x1ae
 1ae:	00 00       	.word	0x0000;	????	
 1b0:	00 02       	.word	0x0200;	????	
 1b2:	01 23       	jnz	$-508    	;abs 0xffb6
 1b4:	00 00       	.word	0x0000;	????	
 1b6:	00 01       	.word	0x0100;	????	
 1b8:	0c 00       	.word	0x000c;	????	
 1ba:	00 00       	.word	0x0000;	????	
 1bc:	a8 00       	.word	0x00a8;	????	
 1be:	00 00       	.word	0x0000;	????	
 1c0:	40 d9       	bis.b	r9,	r0	
 1c2:	3a da       	bis	@r10+,	r10	
 1c4:	56 01       	.word	0x0156;	????	
 1c6:	00 00       	.word	0x0000;	????	
 1c8:	02 04       	.word	0x0402;	????	
 1ca:	05 9f       	cmp	r15,	r5	
 1cc:	00 00       	.word	0x0000;	????	
 1ce:	00 03       	.word	0x0300;	????	
 1d0:	05 00       	.word	0x0005;	????	
 1d2:	00 00       	.word	0x0000;	????	
 1d4:	02 d4       	bis	r4,	r2	
 1d6:	33 00       	.word	0x0033;	????	
 1d8:	00 00       	.word	0x0000;	????	
 1da:	02 02       	.word	0x0202;	????	
 1dc:	07 8d       	sub	r13,	r7	
 1de:	00 00       	.word	0x0000;	????	
 1e0:	00 04       	.word	0x0400;	????	
 1e2:	02 05       	.word	0x0502;	????	
 1e4:	69 6e       	addc.b	@r14,	r9	
 1e6:	74 00       	.word	0x0074;	????	
 1e8:	02 01       	.word	0x0102;	????	
 1ea:	06 64       	addc	r4,	r6	
 1ec:	00 00       	.word	0x0000;	????	
 1ee:	00 02       	.word	0x0200;	????	
 1f0:	08 05       	.word	0x0508;	????	
 1f2:	9a 00       	.word	0x009a;	????	
 1f4:	00 00       	.word	0x0000;	????	
 1f6:	02 01       	.word	0x0102;	????	
 1f8:	08 62       	addc	r2,	r8	
 1fa:	00 00       	.word	0x0000;	????	
 1fc:	00 02       	.word	0x0200;	????	
 1fe:	04 07       	.word	0x0704;	????	
 200:	88 00       	.word	0x0088;	????	
 202:	00 00       	.word	0x0000;	????	
 204:	02 08       	.word	0x0802;	????	
 206:	07 83       	sub	#0,	r7	;r3 As==00
 208:	00 00       	.word	0x0000;	????	
 20a:	00 02       	.word	0x0200;	????	
 20c:	02 07       	.word	0x0702;	????	
 20e:	70 00       	.word	0x0070;	????	
 210:	00 00       	.word	0x0000;	????	
 212:	05 02       	.word	0x0205;	????	
 214:	71 00       	.word	0x0071;	????	
 216:	00 00       	.word	0x0000;	????	
 218:	02 01       	.word	0x0102;	????	
 21a:	06 6b       	addc	r11,	r6	
 21c:	00 00       	.word	0x0000;	????	
 21e:	00 05       	.word	0x0500;	????	
 220:	02 7e       	subc	r14,	r2	
 222:	00 00       	.word	0x0000;	????	
 224:	00 06       	.word	0x0600;	????	
 226:	71 00       	.word	0x0071;	????	
 228:	00 00       	.word	0x0000;	????	
 22a:	03 00       	.word	0x0003;	????	
 22c:	00 00       	.word	0x0000;	????	
 22e:	00 01       	.word	0x0100;	????	
 230:	28 3a       	jl	$-942    	;abs 0xfe82
 232:	00 00       	.word	0x0000;	????	
 234:	00 07       	.word	0x0700;	????	
 236:	01 ce       	bic	r14,	r1	
 238:	00 00       	.word	0x0000;	????	
 23a:	00 01       	.word	0x0100;	????	
 23c:	34 01       	.word	0x0134;	????	
 23e:	09 01       	.word	0x0109;	????	
 240:	00 00       	.word	0x0000;	????	
 242:	40 d9       	bis.b	r9,	r0	
 244:	3a da       	bis	@r10+,	r10	
 246:	00 00       	.word	0x0000;	????	
 248:	00 00       	.word	0x0000;	????	
 24a:	09 01       	.word	0x0109;	????	
 24c:	00 00       	.word	0x0000;	????	
 24e:	08 1e       	.word	0x1e08;	????	
 250:	00 00       	.word	0x0000;	????	
 252:	00 01       	.word	0x0100;	????	
 254:	3e 09       	.word	0x093e;	????	
 256:	01 00       	.word	0x0001;	????	
 258:	00 34       	jge	$+2      	;abs 0x25a
 25a:	00 00       	.word	0x0000;	????	
 25c:	00 08       	.word	0x0800;	????	
 25e:	dc 00       	.word	0x00dc;	????	
 260:	00 00       	.word	0x0000;	????	
 262:	01 3f       	jmp	$-508    	;abs 0x66
 264:	0b 01       	.word	0x010b;	????	
 266:	00 00       	.word	0x0000;	????	
 268:	46 00       	.word	0x0046;	????	
 26a:	00 00       	.word	0x0000;	????	
 26c:	08 d5       	bis	r5,	r8	
 26e:	00 00       	.word	0x0000;	????	
 270:	00 01       	.word	0x0100;	????	
 272:	40 28       	jnc	$+130    	;abs 0x2f4
 274:	00 00       	.word	0x0000;	????	
 276:	00 5f       	add	r15,	r0	
 278:	00 00       	.word	0x0000;	????	
 27a:	00 09       	.word	0x0900;	????	
 27c:	64 73       	subc.b	#2,	r4	;r3 As==10
 27e:	74 00       	.word	0x0074;	????	
 280:	01 42       	mov	r2,	r1	
 282:	6b 00       	.word	0x006b;	????	
 284:	00 00       	.word	0x0000;	????	
 286:	71 00       	.word	0x0071;	????	
 288:	00 00       	.word	0x0000;	????	
 28a:	09 73       	sbc	r9		
 28c:	72 63       	addc.b	#-1,	r2	;r3 As==11
 28e:	00 01       	.word	0x0100;	????	
 290:	43 78       	.word	0x7843;	????	Illegal as 2-op instr
 292:	00 00       	.word	0x0000;	????	
 294:	00 db       	bis	r11,	r0	
 296:	00 00       	.word	0x0000;	????	
 298:	00 09       	.word	0x0900;	????	
 29a:	74 00       	.word	0x0074;	????	
 29c:	01 44       	mov	r4,	r1	
 29e:	28 00       	.word	0x0028;	????	
 2a0:	00 00       	.word	0x0000;	????	
 2a2:	47 01       	.word	0x0147;	????	
 2a4:	00 00       	.word	0x0000;	????	
 2a6:	0a e1       	xor	r1,	r10	
 2a8:	00 00       	.word	0x0000;	????	
 2aa:	00 01       	.word	0x0100;	????	
 2ac:	82 2e       	jc	$-762    	;abs 0xffb2
 2ae:	da 00       	.word	0x00da;	????	
 2b0:	0b 02       	.word	0x020b;	????	
 2b2:	05 02       	.word	0x0205;	????	
 2b4:	11 01       	.word	0x0111;	????	
 2b6:	00 00       	.word	0x0000;	????	
 2b8:	0c 00       	.word	0x000c;	????	
 2ba:	70 00       	.word	0x0070;	????	
 2bc:	00 00       	.word	0x0000;	????	
 2be:	02 00       	.word	0x0002;	????	
 2c0:	d3 00       	.word	0x00d3;	????	
 2c2:	00 00       	.word	0x0000;	????	
 2c4:	02 01       	.word	0x0102;	????	
 2c6:	4c 02       	.word	0x024c;	????	
 2c8:	00 00       	.word	0x0000;	????	
 2ca:	00 c0       	bic	r0,	r0	
 2cc:	0c c0       	bic	r0,	r12	
 2ce:	2e 2e       	jc	$-930    	;abs 0xff2c
 2d0:	2f 2e       	jc	$-928    	;abs 0xff30
 2d2:	2e 2f       	jc	$-418    	;abs 0x130
 2d4:	2e 2e       	jc	$-930    	;abs 0xff32
 2d6:	2f 67       	addc	@r7,	r15	
 2d8:	63 63       	.word	0x6363;	????	Illegal as 2-op instr
 2da:	2d 34       	jge	$+92     	;abs 0x336
 2dc:	2e 36       	jge	$-930    	;abs 0xff3a
 2de:	2e 33       	jn	$-418    	;abs 0x13c
 2e0:	2f 67       	addc	@r7,	r15	
 2e2:	63 63       	.word	0x6363;	????	Illegal as 2-op instr
 2e4:	2f 63       	addc	#2,	r15	;r3 As==10
 2e6:	6f 6e       	addc.b	@r14,	r15	
 2e8:	66 69       	addc.b	@r9,	r6	
 2ea:	67 2f       	jc	$-304    	;abs 0x1ba
 2ec:	6d 73       	subc.b	#2,	r13	;r3 As==10
 2ee:	70 34       	jge	$+226    	;abs 0x3d0
 2f0:	33 30       	jn	$+104    	;abs 0x358
 2f2:	2f 63       	addc	#2,	r15	;r3 As==10
 2f4:	72 74       	subc.b	@r4+,	r2	
 2f6:	30 2e       	jc	$-926    	;abs 0xff58
 2f8:	53 00       	.word	0x0053;	????	
 2fa:	2f 72       	subc	#4,	r15	;r2 As==10
 2fc:	6f 6f       	addc.b	@r15,	r15	
 2fe:	74 2f       	jc	$-278    	;abs 0x1e8
 300:	6d 73       	subc.b	#2,	r13	;r3 As==10
 302:	70 67       	addc.b	@r7+,	r0	
 304:	63 63       	.word	0x6363;	????	Illegal as 2-op instr
 306:	2d 32       	jn	$-932    	;abs 0xff62
 308:	30 31       	jn	$+610    	;abs 0x56a
 30a:	32 30       	jn	$+102    	;abs 0x370
 30c:	34 30       	jn	$+106    	;abs 0x376
 30e:	36 2f       	jc	$-402    	;abs 0x17c
 310:	42 55       	add.b	r5,	r2	
 312:	49 4c       	mov.b	r12,	r9	
 314:	44 2f       	jc	$-374    	;abs 0x19e
 316:	67 63       	addc.b	#2,	r7	;r3 As==10
 318:	63 2f       	jc	$-312    	;abs 0x1e0
 31a:	67 63       	addc.b	#2,	r7	;r3 As==10
 31c:	63 00       	.word	0x0063;	????	
 31e:	47 4e       	mov.b	r14,	r7	
 320:	55 20       	jnz	$+172    	;abs 0x3cc
 322:	41 53       	add.b	#0,	r1	;r3 As==00
 324:	20 32       	jn	$-958    	;abs 0xff66
 326:	2e 32       	jn	$-930    	;abs 0xff84
 328:	31 2e       	jc	$-924    	;abs 0xff8c
 32a:	31 00       	.word	0x0031;	????	
 32c:	01 80       	sub	r0,	r1	
 32e:	70 00       	.word	0x0070;	????	
 330:	00 00       	.word	0x0000;	????	
 332:	02 00       	.word	0x0002;	????	
 334:	e7 00       	.word	0x00e7;	????	
 336:	00 00       	.word	0x0000;	????	
 338:	02 01       	.word	0x0102;	????	
 33a:	a8 02       	.word	0x02a8;	????	
 33c:	00 00       	.word	0x0000;	????	
 33e:	0c c0       	bic	r0,	r12	
 340:	10 c0 2e 2e 	bic	11822(r0),r0	;PC rel. 0x3170
 344:	2f 2e       	jc	$-928    	;abs 0xffa4
 346:	2e 2f       	jc	$-418    	;abs 0x1a4
 348:	2e 2e       	jc	$-930    	;abs 0xffa6
 34a:	2f 67       	addc	@r7,	r15	
 34c:	63 63       	.word	0x6363;	????	Illegal as 2-op instr
 34e:	2d 34       	jge	$+92     	;abs 0x3aa
 350:	2e 36       	jge	$-930    	;abs 0xffae
 352:	2e 33       	jn	$-418    	;abs 0x1b0
 354:	2f 67       	addc	@r7,	r15	
 356:	63 63       	.word	0x6363;	????	Illegal as 2-op instr
 358:	2f 63       	addc	#2,	r15	;r3 As==10
 35a:	6f 6e       	addc.b	@r14,	r15	
 35c:	66 69       	addc.b	@r9,	r6	
 35e:	67 2f       	jc	$-304    	;abs 0x22e
 360:	6d 73       	subc.b	#2,	r13	;r3 As==10
 362:	70 34       	jge	$+226    	;abs 0x444
 364:	33 30       	jn	$+104    	;abs 0x3cc
 366:	2f 63       	addc	#2,	r15	;r3 As==10
 368:	72 74       	subc.b	@r4+,	r2	
 36a:	30 2e       	jc	$-926    	;abs 0xffcc
 36c:	53 00       	.word	0x0053;	????	
 36e:	2f 72       	subc	#4,	r15	;r2 As==10
 370:	6f 6f       	addc.b	@r15,	r15	
 372:	74 2f       	jc	$-278    	;abs 0x25c
 374:	6d 73       	subc.b	#2,	r13	;r3 As==10
 376:	70 67       	addc.b	@r7+,	r0	
 378:	63 63       	.word	0x6363;	????	Illegal as 2-op instr
 37a:	2d 32       	jn	$-932    	;abs 0xffd6
 37c:	30 31       	jn	$+610    	;abs 0x5de
 37e:	32 30       	jn	$+102    	;abs 0x3e4
 380:	34 30       	jn	$+106    	;abs 0x3ea
 382:	36 2f       	jc	$-402    	;abs 0x1f0
 384:	42 55       	add.b	r5,	r2	
 386:	49 4c       	mov.b	r12,	r9	
 388:	44 2f       	jc	$-374    	;abs 0x212
 38a:	67 63       	addc.b	#2,	r7	;r3 As==10
 38c:	63 2f       	jc	$-312    	;abs 0x254
 38e:	67 63       	addc.b	#2,	r7	;r3 As==10
 390:	63 00       	.word	0x0063;	????	
 392:	47 4e       	mov.b	r14,	r7	
 394:	55 20       	jnz	$+172    	;abs 0x440
 396:	41 53       	add.b	#0,	r1	;r3 As==00
 398:	20 32       	jn	$-958    	;abs 0xffda
 39a:	2e 32       	jn	$-930    	;abs 0xfff8
 39c:	31 2e       	jc	$-924    	;abs 0x0
 39e:	31 00       	.word	0x0031;	????	
 3a0:	01 80       	sub	r0,	r1	
 3a2:	70 00       	.word	0x0070;	????	
 3a4:	00 00       	.word	0x0000;	????	
 3a6:	02 00       	.word	0x0002;	????	
 3a8:	fb 00       	.word	0x00fb;	????	
 3aa:	00 00       	.word	0x0000;	????	
 3ac:	02 01       	.word	0x0102;	????	
 3ae:	02 03       	.word	0x0302;	????	
 3b0:	00 00       	.word	0x0000;	????	
 3b2:	10 c0 28 c0 	bic	-16344(r0),r0	;PC rel. 0xc3dc
 3b6:	2e 2e       	jc	$-930    	;abs 0x14
 3b8:	2f 2e       	jc	$-928    	;abs 0x18
 3ba:	2e 2f       	jc	$-418    	;abs 0x218
 3bc:	2e 2e       	jc	$-930    	;abs 0x1a
 3be:	2f 67       	addc	@r7,	r15	
 3c0:	63 63       	.word	0x6363;	????	Illegal as 2-op instr
 3c2:	2d 34       	jge	$+92     	;abs 0x41e
 3c4:	2e 36       	jge	$-930    	;abs 0x22
 3c6:	2e 33       	jn	$-418    	;abs 0x224
 3c8:	2f 67       	addc	@r7,	r15	
 3ca:	63 63       	.word	0x6363;	????	Illegal as 2-op instr
 3cc:	2f 63       	addc	#2,	r15	;r3 As==10
 3ce:	6f 6e       	addc.b	@r14,	r15	
 3d0:	66 69       	addc.b	@r9,	r6	
 3d2:	67 2f       	jc	$-304    	;abs 0x2a2
 3d4:	6d 73       	subc.b	#2,	r13	;r3 As==10
 3d6:	70 34       	jge	$+226    	;abs 0x4b8
 3d8:	33 30       	jn	$+104    	;abs 0x440
 3da:	2f 63       	addc	#2,	r15	;r3 As==10
 3dc:	72 74       	subc.b	@r4+,	r2	
 3de:	30 2e       	jc	$-926    	;abs 0x40
 3e0:	53 00       	.word	0x0053;	????	
 3e2:	2f 72       	subc	#4,	r15	;r2 As==10
 3e4:	6f 6f       	addc.b	@r15,	r15	
 3e6:	74 2f       	jc	$-278    	;abs 0x2d0
 3e8:	6d 73       	subc.b	#2,	r13	;r3 As==10
 3ea:	70 67       	addc.b	@r7+,	r0	
 3ec:	63 63       	.word	0x6363;	????	Illegal as 2-op instr
 3ee:	2d 32       	jn	$-932    	;abs 0x4a
 3f0:	30 31       	jn	$+610    	;abs 0x652
 3f2:	32 30       	jn	$+102    	;abs 0x458
 3f4:	34 30       	jn	$+106    	;abs 0x45e
 3f6:	36 2f       	jc	$-402    	;abs 0x264
 3f8:	42 55       	add.b	r5,	r2	
 3fa:	49 4c       	mov.b	r12,	r9	
 3fc:	44 2f       	jc	$-374    	;abs 0x286
 3fe:	67 63       	addc.b	#2,	r7	;r3 As==10
 400:	63 2f       	jc	$-312    	;abs 0x2c8
 402:	67 63       	addc.b	#2,	r7	;r3 As==10
 404:	63 00       	.word	0x0063;	????	
 406:	47 4e       	mov.b	r14,	r7	
 408:	55 20       	jnz	$+172    	;abs 0x4b4
 40a:	41 53       	add.b	#0,	r1	;r3 As==00
 40c:	20 32       	jn	$-958    	;abs 0x4e
 40e:	2e 32       	jn	$-930    	;abs 0x6c
 410:	31 2e       	jc	$-924    	;abs 0x74
 412:	31 00       	.word	0x0031;	????	
 414:	01 80       	sub	r0,	r1	
 416:	70 00       	.word	0x0070;	????	
 418:	00 00       	.word	0x0000;	????	
 41a:	02 00       	.word	0x0002;	????	
 41c:	0f 01       	.word	0x010f;	????	
 41e:	00 00       	.word	0x0000;	????	
 420:	02 01       	.word	0x0102;	????	
 422:	62 03       	.word	0x0362;	????	
 424:	00 00       	.word	0x0000;	????	
 426:	28 c0       	bic	@r0,	r8	
 428:	3e c0 2e 2e 	bic	#11822,	r14	;#0x2e2e
 42c:	2f 2e       	jc	$-928    	;abs 0x8c
 42e:	2e 2f       	jc	$-418    	;abs 0x28c
 430:	2e 2e       	jc	$-930    	;abs 0x8e
 432:	2f 67       	addc	@r7,	r15	
 434:	63 63       	.word	0x6363;	????	Illegal as 2-op instr
 436:	2d 34       	jge	$+92     	;abs 0x492
 438:	2e 36       	jge	$-930    	;abs 0x96
 43a:	2e 33       	jn	$-418    	;abs 0x298
 43c:	2f 67       	addc	@r7,	r15	
 43e:	63 63       	.word	0x6363;	????	Illegal as 2-op instr
 440:	2f 63       	addc	#2,	r15	;r3 As==10
 442:	6f 6e       	addc.b	@r14,	r15	
 444:	66 69       	addc.b	@r9,	r6	
 446:	67 2f       	jc	$-304    	;abs 0x316
 448:	6d 73       	subc.b	#2,	r13	;r3 As==10
 44a:	70 34       	jge	$+226    	;abs 0x52c
 44c:	33 30       	jn	$+104    	;abs 0x4b4
 44e:	2f 63       	addc	#2,	r15	;r3 As==10
 450:	72 74       	subc.b	@r4+,	r2	
 452:	30 2e       	jc	$-926    	;abs 0xb4
 454:	53 00       	.word	0x0053;	????	
 456:	2f 72       	subc	#4,	r15	;r2 As==10
 458:	6f 6f       	addc.b	@r15,	r15	
 45a:	74 2f       	jc	$-278    	;abs 0x344
 45c:	6d 73       	subc.b	#2,	r13	;r3 As==10
 45e:	70 67       	addc.b	@r7+,	r0	
 460:	63 63       	.word	0x6363;	????	Illegal as 2-op instr
 462:	2d 32       	jn	$-932    	;abs 0xbe
 464:	30 31       	jn	$+610    	;abs 0x6c6
 466:	32 30       	jn	$+102    	;abs 0x4cc
 468:	34 30       	jn	$+106    	;abs 0x4d2
 46a:	36 2f       	jc	$-402    	;abs 0x2d8
 46c:	42 55       	add.b	r5,	r2	
 46e:	49 4c       	mov.b	r12,	r9	
 470:	44 2f       	jc	$-374    	;abs 0x2fa
 472:	67 63       	addc.b	#2,	r7	;r3 As==10
 474:	63 2f       	jc	$-312    	;abs 0x33c
 476:	67 63       	addc.b	#2,	r7	;r3 As==10
 478:	63 00       	.word	0x0063;	????	
 47a:	47 4e       	mov.b	r14,	r7	
 47c:	55 20       	jnz	$+172    	;abs 0x528
 47e:	41 53       	add.b	#0,	r1	;r3 As==00
 480:	20 32       	jn	$-958    	;abs 0xc2
 482:	2e 32       	jn	$-930    	;abs 0xe0
 484:	31 2e       	jc	$-924    	;abs 0xe8
 486:	31 00       	.word	0x0031;	????	
 488:	01 80       	sub	r0,	r1	
 48a:	70 00       	.word	0x0070;	????	
 48c:	00 00       	.word	0x0000;	????	
 48e:	02 00       	.word	0x0002;	????	
 490:	23 01       	.word	0x0123;	????	
 492:	00 00       	.word	0x0000;	????	
 494:	02 01       	.word	0x0102;	????	
 496:	c2 03       	.word	0x03c2;	????	
 498:	00 00       	.word	0x0000;	????	
 49a:	f8 ca fe ca 	bic.b	@r10+,	-13570(r8);0xcafe(r8)
 49e:	2e 2e       	jc	$-930    	;abs 0xfc
 4a0:	2f 2e       	jc	$-928    	;abs 0x100
 4a2:	2e 2f       	jc	$-418    	;abs 0x300
 4a4:	2e 2e       	jc	$-930    	;abs 0x102
 4a6:	2f 67       	addc	@r7,	r15	
 4a8:	63 63       	.word	0x6363;	????	Illegal as 2-op instr
 4aa:	2d 34       	jge	$+92     	;abs 0x506
 4ac:	2e 36       	jge	$-930    	;abs 0x10a
 4ae:	2e 33       	jn	$-418    	;abs 0x30c
 4b0:	2f 67       	addc	@r7,	r15	
 4b2:	63 63       	.word	0x6363;	????	Illegal as 2-op instr
 4b4:	2f 63       	addc	#2,	r15	;r3 As==10
 4b6:	6f 6e       	addc.b	@r14,	r15	
 4b8:	66 69       	addc.b	@r9,	r6	
 4ba:	67 2f       	jc	$-304    	;abs 0x38a
 4bc:	6d 73       	subc.b	#2,	r13	;r3 As==10
 4be:	70 34       	jge	$+226    	;abs 0x5a0
 4c0:	33 30       	jn	$+104    	;abs 0x528
 4c2:	2f 63       	addc	#2,	r15	;r3 As==10
 4c4:	72 74       	subc.b	@r4+,	r2	
 4c6:	30 2e       	jc	$-926    	;abs 0x128
 4c8:	53 00       	.word	0x0053;	????	
 4ca:	2f 72       	subc	#4,	r15	;r2 As==10
 4cc:	6f 6f       	addc.b	@r15,	r15	
 4ce:	74 2f       	jc	$-278    	;abs 0x3b8
 4d0:	6d 73       	subc.b	#2,	r13	;r3 As==10
 4d2:	70 67       	addc.b	@r7+,	r0	
 4d4:	63 63       	.word	0x6363;	????	Illegal as 2-op instr
 4d6:	2d 32       	jn	$-932    	;abs 0x132
 4d8:	30 31       	jn	$+610    	;abs 0x73a
 4da:	32 30       	jn	$+102    	;abs 0x540
 4dc:	34 30       	jn	$+106    	;abs 0x546
 4de:	36 2f       	jc	$-402    	;abs 0x34c
 4e0:	42 55       	add.b	r5,	r2	
 4e2:	49 4c       	mov.b	r12,	r9	
 4e4:	44 2f       	jc	$-374    	;abs 0x36e
 4e6:	67 63       	addc.b	#2,	r7	;r3 As==10
 4e8:	63 2f       	jc	$-312    	;abs 0x3b0
 4ea:	67 63       	addc.b	#2,	r7	;r3 As==10
 4ec:	63 00       	.word	0x0063;	????	
 4ee:	47 4e       	mov.b	r14,	r7	
 4f0:	55 20       	jnz	$+172    	;abs 0x59c
 4f2:	41 53       	add.b	#0,	r1	;r3 As==00
 4f4:	20 32       	jn	$-958    	;abs 0x136
 4f6:	2e 32       	jn	$-930    	;abs 0x154
 4f8:	31 2e       	jc	$-924    	;abs 0x15c
 4fa:	31 00       	.word	0x0031;	????	
 4fc:	01 80       	sub	r0,	r1	
 4fe:	70 00       	.word	0x0070;	????	
 500:	00 00       	.word	0x0000;	????	
 502:	02 00       	.word	0x0002;	????	
 504:	37 01       	.word	0x0137;	????	
 506:	00 00       	.word	0x0000;	????	
 508:	02 01       	.word	0x0102;	????	
 50a:	1d 04       	.word	0x041d;	????	
 50c:	00 00       	.word	0x0000;	????	
 50e:	3a da       	bis	@r10+,	r10	
 510:	3c da       	bis	@r10+,	r12	
 512:	2e 2e       	jc	$-930    	;abs 0x170
 514:	2f 2e       	jc	$-928    	;abs 0x174
 516:	2e 2f       	jc	$-418    	;abs 0x374
 518:	2e 2e       	jc	$-930    	;abs 0x176
 51a:	2f 67       	addc	@r7,	r15	
 51c:	63 63       	.word	0x6363;	????	Illegal as 2-op instr
 51e:	2d 34       	jge	$+92     	;abs 0x57a
 520:	2e 36       	jge	$-930    	;abs 0x17e
 522:	2e 33       	jn	$-418    	;abs 0x380
 524:	2f 67       	addc	@r7,	r15	
 526:	63 63       	.word	0x6363;	????	Illegal as 2-op instr
 528:	2f 63       	addc	#2,	r15	;r3 As==10
 52a:	6f 6e       	addc.b	@r14,	r15	
 52c:	66 69       	addc.b	@r9,	r6	
 52e:	67 2f       	jc	$-304    	;abs 0x3fe
 530:	6d 73       	subc.b	#2,	r13	;r3 As==10
 532:	70 34       	jge	$+226    	;abs 0x614
 534:	33 30       	jn	$+104    	;abs 0x59c
 536:	2f 63       	addc	#2,	r15	;r3 As==10
 538:	72 74       	subc.b	@r4+,	r2	
 53a:	30 2e       	jc	$-926    	;abs 0x19c
 53c:	53 00       	.word	0x0053;	????	
 53e:	2f 72       	subc	#4,	r15	;r2 As==10
 540:	6f 6f       	addc.b	@r15,	r15	
 542:	74 2f       	jc	$-278    	;abs 0x42c
 544:	6d 73       	subc.b	#2,	r13	;r3 As==10
 546:	70 67       	addc.b	@r7+,	r0	
 548:	63 63       	.word	0x6363;	????	Illegal as 2-op instr
 54a:	2d 32       	jn	$-932    	;abs 0x1a6
 54c:	30 31       	jn	$+610    	;abs 0x7ae
 54e:	32 30       	jn	$+102    	;abs 0x5b4
 550:	34 30       	jn	$+106    	;abs 0x5ba
 552:	36 2f       	jc	$-402    	;abs 0x3c0
 554:	42 55       	add.b	r5,	r2	
 556:	49 4c       	mov.b	r12,	r9	
 558:	44 2f       	jc	$-374    	;abs 0x3e2
 55a:	67 63       	addc.b	#2,	r7	;r3 As==10
 55c:	63 2f       	jc	$-312    	;abs 0x424
 55e:	67 63       	addc.b	#2,	r7	;r3 As==10
 560:	63 00       	.word	0x0063;	????	
 562:	47 4e       	mov.b	r14,	r7	
 564:	55 20       	jnz	$+172    	;abs 0x610
 566:	41 53       	add.b	#0,	r1	;r3 As==00
 568:	20 32       	jn	$-958    	;abs 0x1aa
 56a:	2e 32       	jn	$-930    	;abs 0x1c8
 56c:	31 2e       	jc	$-924    	;abs 0x1d0
 56e:	31 00       	.word	0x0031;	????	
 570:	01 80       	sub	r0,	r1	

Disassembly of section .debug_abbrev:

00000000 <.debug_abbrev>:
   0:	01 11       	rra	r1		
   2:	00 10       	rrc	r0		
   4:	06 11       	rra	r6		
   6:	01 12       	push	r1		
   8:	01 03       	.word	0x0301;	????	
   a:	08 1b       	.word	0x1b08;	????	
   c:	08 25       	jz	$+530    	;abs 0x21e
   e:	08 13       	reti			;return from interupt
  10:	05 00       	.word	0x0005;	????	
  12:	00 00       	.word	0x0000;	????	
  14:	01 11       	rra	r1		
  16:	00 10       	rrc	r0		
  18:	06 11       	rra	r6		
  1a:	01 12       	push	r1		
  1c:	01 03       	.word	0x0301;	????	
  1e:	08 1b       	.word	0x1b08;	????	
  20:	08 25       	jz	$+530    	;abs 0x232
  22:	08 13       	reti			;return from interupt
  24:	05 00       	.word	0x0005;	????	
  26:	00 00       	.word	0x0000;	????	
  28:	01 11       	rra	r1		
  2a:	00 10       	rrc	r0		
  2c:	06 11       	rra	r6		
  2e:	01 12       	push	r1		
  30:	01 03       	.word	0x0301;	????	
  32:	08 1b       	.word	0x1b08;	????	
  34:	08 25       	jz	$+530    	;abs 0x246
  36:	08 13       	reti			;return from interupt
  38:	05 00       	.word	0x0005;	????	
  3a:	00 00       	.word	0x0000;	????	
  3c:	01 11       	rra	r1		
  3e:	01 25       	jz	$+516    	;abs 0x242
  40:	0e 13       	reti			;return from interupt
  42:	0b 03       	.word	0x030b;	????	
  44:	0e 1b       	.word	0x1b0e;	????	
  46:	0e 11       	rra	r14		
  48:	01 12       	push	r1		
  4a:	01 10       	rrc	r1		
  4c:	06 00       	.word	0x0006;	????	
  4e:	00 02       	.word	0x0200;	????	
  50:	24 00       	.word	0x0024;	????	
  52:	0b 0b       	.word	0x0b0b;	????	
  54:	3e 0b       	.word	0x0b3e;	????	
  56:	03 0e       	.word	0x0e03;	????	
  58:	00 00       	.word	0x0000;	????	
  5a:	03 16       	.word	0x1603;	????	
  5c:	00 03       	.word	0x0300;	????	
  5e:	0e 3a       	jl	$-994    	;abs 0xfc7c
  60:	0b 3b       	jl	$-488    	;abs 0xfe78
  62:	0b 49       	mov	r9,	r11	
  64:	13 00       	.word	0x0013;	????	
  66:	00 04       	.word	0x0400;	????	
  68:	24 00       	.word	0x0024;	????	
  6a:	0b 0b       	.word	0x0b0b;	????	
  6c:	3e 0b       	.word	0x0b3e;	????	
  6e:	03 08       	.word	0x0803;	????	
  70:	00 00       	.word	0x0000;	????	
  72:	05 0f       	.word	0x0f05;	????	
  74:	00 0b       	.word	0x0b00;	????	
  76:	0b 49       	mov	r9,	r11	
  78:	13 00       	.word	0x0013;	????	
  7a:	00 06       	.word	0x0600;	????	
  7c:	26 00       	.word	0x0026;	????	
  7e:	49 13       	.word	0x1349;	????	
  80:	00 00       	.word	0x0000;	????	
  82:	07 2e       	jc	$-1008   	;abs 0xfc92
  84:	01 3f       	jmp	$-508    	;abs 0xfe88
  86:	0c 03       	.word	0x030c;	????	
  88:	0e 3a       	jl	$-994    	;abs 0xfca6
  8a:	0b 3b       	jl	$-488    	;abs 0xfea2
  8c:	0b 27       	jz	$-488    	;abs 0xfea4
  8e:	0c 49       	mov	r9,	r12	
  90:	13 11       	rra	#1		;r3 As==01
  92:	01 12       	push	r1		
  94:	01 40       	mov	r0,	r1	
  96:	06 01       	.word	0x0106;	????	
  98:	13 00       	.word	0x0013;	????	
  9a:	00 08       	.word	0x0800;	????	
  9c:	05 00       	.word	0x0005;	????	
  9e:	03 0e       	.word	0x0e03;	????	
  a0:	3a 0b       	.word	0x0b3a;	????	
  a2:	3b 0b       	.word	0x0b3b;	????	
  a4:	49 13       	.word	0x1349;	????	
  a6:	02 06       	.word	0x0602;	????	
  a8:	00 00       	.word	0x0000;	????	
  aa:	09 34       	jge	$+20     	;abs 0xbe
  ac:	00 03       	.word	0x0300;	????	
  ae:	08 3a       	jl	$-1006   	;abs 0xfcc0
  b0:	0b 3b       	jl	$-488    	;abs 0xfec8
  b2:	0b 49       	mov	r9,	r11	
  b4:	13 02       	.word	0x0213;	????	
  b6:	06 00       	.word	0x0006;	????	
  b8:	00 0a       	.word	0x0a00;	????	
  ba:	0a 00       	.word	0x000a;	????	
  bc:	03 0e       	.word	0x0e03;	????	
  be:	3a 0b       	.word	0x0b3a;	????	
  c0:	3b 0b       	.word	0x0b3b;	????	
  c2:	11 01       	.word	0x0111;	????	
  c4:	00 00       	.word	0x0000;	????	
  c6:	0b 0f       	.word	0x0f0b;	????	
  c8:	00 0b       	.word	0x0b00;	????	
  ca:	0b 00       	.word	0x000b;	????	
  cc:	00 0c       	.word	0x0c00;	????	
  ce:	26 00       	.word	0x0026;	????	
  d0:	00 00       	.word	0x0000;	????	
  d2:	00 01       	.word	0x0100;	????	
  d4:	11 00       	.word	0x0011;	????	
  d6:	10 06       	.word	0x0610;	????	
  d8:	11 01       	.word	0x0111;	????	
  da:	12 01       	.word	0x0112;	????	
  dc:	03 08       	.word	0x0803;	????	
  de:	1b 08       	.word	0x081b;	????	
  e0:	25 08       	.word	0x0825;	????	
  e2:	13 05       	.word	0x0513;	????	
  e4:	00 00       	.word	0x0000;	????	
  e6:	00 01       	.word	0x0100;	????	
  e8:	11 00       	.word	0x0011;	????	
  ea:	10 06       	.word	0x0610;	????	
  ec:	11 01       	.word	0x0111;	????	
  ee:	12 01       	.word	0x0112;	????	
  f0:	03 08       	.word	0x0803;	????	
  f2:	1b 08       	.word	0x081b;	????	
  f4:	25 08       	.word	0x0825;	????	
  f6:	13 05       	.word	0x0513;	????	
  f8:	00 00       	.word	0x0000;	????	
  fa:	00 01       	.word	0x0100;	????	
  fc:	11 00       	.word	0x0011;	????	
  fe:	10 06       	.word	0x0610;	????	
 100:	11 01       	.word	0x0111;	????	
 102:	12 01       	.word	0x0112;	????	
 104:	03 08       	.word	0x0803;	????	
 106:	1b 08       	.word	0x081b;	????	
 108:	25 08       	.word	0x0825;	????	
 10a:	13 05       	.word	0x0513;	????	
 10c:	00 00       	.word	0x0000;	????	
 10e:	00 01       	.word	0x0100;	????	
 110:	11 00       	.word	0x0011;	????	
 112:	10 06       	.word	0x0610;	????	
 114:	11 01       	.word	0x0111;	????	
 116:	12 01       	.word	0x0112;	????	
 118:	03 08       	.word	0x0803;	????	
 11a:	1b 08       	.word	0x081b;	????	
 11c:	25 08       	.word	0x0825;	????	
 11e:	13 05       	.word	0x0513;	????	
 120:	00 00       	.word	0x0000;	????	
 122:	00 01       	.word	0x0100;	????	
 124:	11 00       	.word	0x0011;	????	
 126:	10 06       	.word	0x0610;	????	
 128:	11 01       	.word	0x0111;	????	
 12a:	12 01       	.word	0x0112;	????	
 12c:	03 08       	.word	0x0803;	????	
 12e:	1b 08       	.word	0x081b;	????	
 130:	25 08       	.word	0x0825;	????	
 132:	13 05       	.word	0x0513;	????	
 134:	00 00       	.word	0x0000;	????	
 136:	00 01       	.word	0x0100;	????	
 138:	11 00       	.word	0x0011;	????	
 13a:	10 06       	.word	0x0610;	????	
 13c:	11 01       	.word	0x0111;	????	
 13e:	12 01       	.word	0x0112;	????	
 140:	03 08       	.word	0x0803;	????	
 142:	1b 08       	.word	0x081b;	????	
 144:	25 08       	.word	0x0825;	????	
 146:	13 05       	.word	0x0513;	????	
 148:	00 00       	.word	0x0000;	????	
	...

Disassembly of section .debug_line:

00000000 <.debug_line>:
   0:	67 00       	.word	0x0067;	????	
   2:	00 00       	.word	0x0000;	????	
   4:	02 00       	.word	0x0002;	????	
   6:	51 00       	.word	0x0051;	????	
   8:	00 00       	.word	0x0000;	????	
   a:	01 01       	.word	0x0101;	????	
   c:	fb 0e       	.word	0x0efb;	????	
   e:	0d 00       	.word	0x000d;	????	
  10:	01 01       	.word	0x0101;	????	
  12:	01 01       	.word	0x0101;	????	
  14:	00 00       	.word	0x0000;	????	
  16:	00 01       	.word	0x0100;	????	
  18:	00 00       	.word	0x0000;	????	
  1a:	01 2e       	jc	$-1020   	;abs 0xfc1e
  1c:	2e 2f       	jc	$-418    	;abs 0xfe7a
  1e:	2e 2e       	jc	$-930    	;abs 0xfc7c
  20:	2f 2e       	jc	$-928    	;abs 0xfc80
  22:	2e 2f       	jc	$-418    	;abs 0xfe80
  24:	2e 2e       	jc	$-930    	;abs 0xfc82
  26:	2f 67       	addc	@r7,	r15	
  28:	63 63       	.word	0x6363;	????	Illegal as 2-op instr
  2a:	2d 34       	jge	$+92     	;abs 0x86
  2c:	2e 36       	jge	$-930    	;abs 0xfc8a
  2e:	2e 33       	jn	$-418    	;abs 0xfe8c
  30:	2f 6c       	addc	@r12,	r15	
  32:	69 62       	addc.b	#4,	r9	;r2 As==10
  34:	67 63       	addc.b	#2,	r7	;r3 As==10
  36:	63 2f       	jc	$-312    	;abs 0xfefe
  38:	2e 2e       	jc	$-930    	;abs 0xfc96
  3a:	2f 67       	addc	@r7,	r15	
  3c:	63 63       	.word	0x6363;	????	Illegal as 2-op instr
  3e:	2f 63       	addc	#2,	r15	;r3 As==10
  40:	6f 6e       	addc.b	@r14,	r15	
  42:	66 69       	addc.b	@r9,	r6	
  44:	67 2f       	jc	$-304    	;abs 0xff14
  46:	6d 73       	subc.b	#2,	r13	;r3 As==10
  48:	70 34       	jge	$+226    	;abs 0x12a
  4a:	33 30       	jn	$+104    	;abs 0xb2
  4c:	00 00       	.word	0x0000;	????	
  4e:	6c 69       	addc.b	@r9,	r12	
  50:	62 67       	addc.b	@r7,	r2	
  52:	63 63       	.word	0x6363;	????	Illegal as 2-op instr
  54:	2e 53       	incd	r14		
  56:	00 01       	.word	0x0100;	????	
  58:	00 00       	.word	0x0000;	????	
  5a:	00 00       	.word	0x0000;	????	
  5c:	03 02       	.word	0x0203;	????	
  5e:	fe d8 03 a2 	bis.b	@r8+,	-24061(r14);0xa203(r14)
  62:	01 01       	.word	0x0101;	????	
  64:	2f 2f       	jc	$-416    	;abs 0xfec4
  66:	02 04       	.word	0x0402;	????	
  68:	00 01       	.word	0x0100;	????	
  6a:	01 70       	subc	r0,	r1	
  6c:	00 00       	.word	0x0000;	????	
  6e:	00 02       	.word	0x0200;	????	
  70:	00 51       	add	r1,	r0	
  72:	00 00       	.word	0x0000;	????	
  74:	00 01       	.word	0x0100;	????	
  76:	01 fb       	and	r11,	r1	
  78:	0e 0d       	.word	0x0d0e;	????	
  7a:	00 01       	.word	0x0100;	????	
  7c:	01 01       	.word	0x0101;	????	
  7e:	01 00       	.word	0x0001;	????	
  80:	00 00       	.word	0x0000;	????	
  82:	01 00       	.word	0x0001;	????	
  84:	00 01       	.word	0x0100;	????	
  86:	2e 2e       	jc	$-930    	;abs 0xfce4
  88:	2f 2e       	jc	$-928    	;abs 0xfce8
  8a:	2e 2f       	jc	$-418    	;abs 0xfee8
  8c:	2e 2e       	jc	$-930    	;abs 0xfcea
  8e:	2f 2e       	jc	$-928    	;abs 0xfcee
  90:	2e 2f       	jc	$-418    	;abs 0xfeee
  92:	67 63       	addc.b	#2,	r7	;r3 As==10
  94:	63 2d       	jc	$+712    	;abs 0x35c
  96:	34 2e       	jc	$-918    	;abs 0xfd00
  98:	36 2e       	jc	$-914    	;abs 0xfd06
  9a:	33 2f       	jc	$-408    	;abs 0xff02
  9c:	6c 69       	addc.b	@r9,	r12	
  9e:	62 67       	addc.b	@r7,	r2	
  a0:	63 63       	.word	0x6363;	????	Illegal as 2-op instr
  a2:	2f 2e       	jc	$-928    	;abs 0xfd02
  a4:	2e 2f       	jc	$-418    	;abs 0xff02
  a6:	67 63       	addc.b	#2,	r7	;r3 As==10
  a8:	63 2f       	jc	$-312    	;abs 0xff70
  aa:	63 6f       	.word	0x6f63;	????	Illegal as 2-op instr
  ac:	6e 66       	addc.b	@r6,	r14	
  ae:	69 67       	addc.b	@r7,	r9	
  b0:	2f 6d       	addc	@r13,	r15	
  b2:	73 70       	.word	0x7073;	????	Illegal as 2-op instr
  b4:	34 33       	jn	$-406    	;abs 0xff1e
  b6:	30 00       	.word	0x0030;	????	
  b8:	00 6c       	addc	r12,	r0	
  ba:	69 62       	addc.b	#4,	r9	;r2 As==10
  bc:	67 63       	addc.b	#2,	r7	;r3 As==10
  be:	63 2e       	jc	$-824    	;abs 0xfd86
  c0:	53 00       	.word	0x0053;	????	
  c2:	01 00       	.word	0x0001;	????	
  c4:	00 00       	.word	0x0000;	????	
  c6:	00 03       	.word	0x0300;	????	
  c8:	02 06       	.word	0x0602;	????	
  ca:	d9 03       	.word	0x03d9;	????	
  cc:	af 01       	.word	0x01af;	????	
  ce:	01 2f       	jc	$-508    	;abs 0xfed2
  d0:	2f 2f       	jc	$-416    	;abs 0xff30
  d2:	32 2f       	jc	$-410    	;abs 0xff38
  d4:	30 2f       	jc	$-414    	;abs 0xff36
  d6:	2f 2f       	jc	$-416    	;abs 0xff36
  d8:	2f 2f       	jc	$-416    	;abs 0xff38
  da:	02 02       	.word	0x0202;	????	
  dc:	00 01       	.word	0x0100;	????	
  de:	01 73       	sbc	r1		
  e0:	00 00       	.word	0x0000;	????	
  e2:	00 02       	.word	0x0200;	????	
  e4:	00 51       	add	r1,	r0	
  e6:	00 00       	.word	0x0000;	????	
  e8:	00 01       	.word	0x0100;	????	
  ea:	01 fb       	and	r11,	r1	
  ec:	0e 0d       	.word	0x0d0e;	????	
  ee:	00 01       	.word	0x0100;	????	
  f0:	01 01       	.word	0x0101;	????	
  f2:	01 00       	.word	0x0001;	????	
  f4:	00 00       	.word	0x0000;	????	
  f6:	01 00       	.word	0x0001;	????	
  f8:	00 01       	.word	0x0100;	????	
  fa:	2e 2e       	jc	$-930    	;abs 0xfd58
  fc:	2f 2e       	jc	$-928    	;abs 0xfd5c
  fe:	2e 2f       	jc	$-418    	;abs 0xff5c
 100:	2e 2e       	jc	$-930    	;abs 0xfd5e
 102:	2f 2e       	jc	$-928    	;abs 0xfd62
 104:	2e 2f       	jc	$-418    	;abs 0xff62
 106:	67 63       	addc.b	#2,	r7	;r3 As==10
 108:	63 2d       	jc	$+712    	;abs 0x3d0
 10a:	34 2e       	jc	$-918    	;abs 0xfd74
 10c:	36 2e       	jc	$-914    	;abs 0xfd7a
 10e:	33 2f       	jc	$-408    	;abs 0xff76
 110:	6c 69       	addc.b	@r9,	r12	
 112:	62 67       	addc.b	@r7,	r2	
 114:	63 63       	.word	0x6363;	????	Illegal as 2-op instr
 116:	2f 2e       	jc	$-928    	;abs 0xfd76
 118:	2e 2f       	jc	$-418    	;abs 0xff76
 11a:	67 63       	addc.b	#2,	r7	;r3 As==10
 11c:	63 2f       	jc	$-312    	;abs 0xffe4
 11e:	63 6f       	.word	0x6f63;	????	Illegal as 2-op instr
 120:	6e 66       	addc.b	@r6,	r14	
 122:	69 67       	addc.b	@r7,	r9	
 124:	2f 6d       	addc	@r13,	r15	
 126:	73 70       	.word	0x7073;	????	Illegal as 2-op instr
 128:	34 33       	jn	$-406    	;abs 0xff92
 12a:	30 00       	.word	0x0030;	????	
 12c:	00 6c       	addc	r12,	r0	
 12e:	69 62       	addc.b	#4,	r9	;r2 As==10
 130:	67 63       	addc.b	#2,	r7	;r3 As==10
 132:	63 2e       	jc	$-824    	;abs 0xfdfa
 134:	53 00       	.word	0x0053;	????	
 136:	01 00       	.word	0x0001;	????	
 138:	00 00       	.word	0x0000;	????	
 13a:	00 03       	.word	0x0300;	????	
 13c:	02 1e       	.word	0x1e02;	????	
 13e:	d9 03       	.word	0x03d9;	????	
 140:	a4 04       	.word	0x04a4;	????	
 142:	01 4b       	mov	r11,	r1	
 144:	2f 2f       	jc	$-416    	;abs 0xffa4
 146:	2f 2f       	jc	$-416    	;abs 0xffa6
 148:	2f 2f       	jc	$-416    	;abs 0xffa8
 14a:	2f 2f       	jc	$-416    	;abs 0xffaa
 14c:	2f 2f       	jc	$-416    	;abs 0xffac
 14e:	34 4b       	mov	@r11+,	r4	
 150:	2f 02       	.word	0x022f;	????	
 152:	02 00       	.word	0x0002;	????	
 154:	01 01       	.word	0x0101;	????	
 156:	f2 00       	.word	0x00f2;	????	
 158:	00 00       	.word	0x0000;	????	
 15a:	02 00       	.word	0x0002;	????	
 15c:	62 00       	.word	0x0062;	????	
 15e:	00 00       	.word	0x0000;	????	
 160:	01 01       	.word	0x0101;	????	
 162:	fb 0e       	.word	0x0efb;	????	
 164:	0d 00       	.word	0x000d;	????	
 166:	01 01       	.word	0x0101;	????	
 168:	01 01       	.word	0x0101;	????	
 16a:	00 00       	.word	0x0000;	????	
 16c:	00 01       	.word	0x0100;	????	
 16e:	00 00       	.word	0x0000;	????	
 170:	01 2e       	jc	$-1020   	;abs 0xfd74
 172:	2f 73       	subc	#2,	r15	;r3 As==10
 174:	74 72       	subc.b	#8,	r4	;r2 As==11
 176:	69 6e       	addc.b	@r14,	r9	
 178:	67 00       	.word	0x0067;	????	
 17a:	2f 68       	addc	@r8,	r15	
 17c:	6f 6d       	addc.b	@r13,	r15	
 17e:	65 2f       	jc	$-308    	;abs 0x4a
 180:	75 73       	subc.b	#-1,	r5	;r3 As==11
 182:	65 72       	subc.b	#4,	r5	;r2 As==10
 184:	2f 6d       	addc	@r13,	r15	
 186:	73 70       	.word	0x7073;	????	Illegal as 2-op instr
 188:	34 33       	jn	$-406    	;abs 0xfff2
 18a:	30 2f       	jc	$-414    	;abs 0xffec
 18c:	6c 69       	addc.b	@r9,	r12	
 18e:	62 2f       	jc	$-314    	;abs 0x54
 190:	67 63       	addc.b	#2,	r7	;r3 As==10
 192:	63 2f       	jc	$-312    	;abs 0x5a
 194:	6d 73       	subc.b	#2,	r13	;r3 As==10
 196:	70 34       	jge	$+226    	;abs 0x278
 198:	33 30       	jn	$+104    	;abs 0x200
 19a:	2f 34       	jge	$+96     	;abs 0x1fa
 19c:	2e 36       	jge	$-930    	;abs 0xfdfa
 19e:	2e 33       	jn	$-418    	;abs 0xfffc
 1a0:	2f 69       	addc	@r9,	r15	
 1a2:	6e 63       	addc.b	#2,	r14	;r3 As==10
 1a4:	6c 75       	subc.b	@r5,	r12	
 1a6:	64 65       	addc.b	@r5,	r4	
 1a8:	00 00       	.word	0x0000;	????	
 1aa:	62 63       	addc.b	#2,	r2	;r3 As==10
 1ac:	6f 70       	subc.b	@r0,	r15	
 1ae:	79 2e       	jc	$-780    	;abs 0xfea2
 1b0:	63 00       	.word	0x0063;	????	
 1b2:	01 00       	.word	0x0001;	????	
 1b4:	00 73       	sbc	r0		
 1b6:	74 64       	addc.b	@r4+,	r4	
 1b8:	64 65       	addc.b	@r5,	r4	
 1ba:	66 2e       	jc	$-818    	;abs 0xfe88
 1bc:	68 00       	.word	0x0068;	????	
 1be:	02 00       	.word	0x0002;	????	
 1c0:	00 00       	.word	0x0000;	????	
 1c2:	00 03       	.word	0x0300;	????	
 1c4:	02 40       	mov	r0,	r2	
 1c6:	d9 03       	.word	0x03d9;	????	
 1c8:	c0 00       	.word	0x00c0;	????	
 1ca:	01 a3       	dadc	r1		
 1cc:	00 02       	.word	0x0200;	????	
 1ce:	04 01       	.word	0x0104;	????	
 1d0:	06 4a       	mov	r10,	r6	
 1d2:	06 03       	.word	0x0306;	????	
 1d4:	09 4a       	mov	r10,	r9	
 1d6:	34 88       	sub	@r8+,	r4	
 1d8:	00 02       	.word	0x0200;	????	
 1da:	04 01       	.word	0x0104;	????	
 1dc:	06 82       	sub	r2,	r6	
 1de:	06 4d       	mov	r13,	r6	
 1e0:	9b 6a 00 02 	addc	512(r10),260(r11);0x0200(r10), 0x0104(r11)
 1e4:	04 01 
 1e6:	83 06       	.word	0x0683;	????	
 1e8:	9e 06       	.word	0x069e;	????	
 1ea:	03 75       	.word	0x7503;	????	Illegal as 2-op instr
 1ec:	82 03       	.word	0x0382;	????	
 1ee:	10 2e       	jc	$-990    	;abs 0xfe10
 1f0:	67 00       	.word	0x0067;	????	
 1f2:	02 04       	.word	0x0402;	????	
 1f4:	01 06       	.word	0x0601;	????	
 1f6:	2e 06       	.word	0x062e;	????	
 1f8:	03 4e       	.word	0x4e03;	????	Illegal as 2-op instr
 1fa:	f2 03       	.word	0x03f2;	????	
 1fc:	33 66       	.word	0x6633;	????	Illegal as 2-op instr
 1fe:	2f 00       	.word	0x002f;	????	
 200:	02 04       	.word	0x0402;	????	
 202:	01 06       	.word	0x0601;	????	
 204:	2e 06       	.word	0x062e;	????	
 206:	03 09       	.word	0x0903;	????	
 208:	66 2f       	jc	$-306    	;abs 0xd6
 20a:	4c 84       	sub.b	r4,	r12	
 20c:	00 02       	.word	0x0200;	????	
 20e:	04 01       	.word	0x0104;	????	
 210:	06 82       	sub	r2,	r6	
 212:	06 69       	addc	r9,	r6	
 214:	63 32       	jn	$-824    	;abs 0xfedc
 216:	03 77       	.word	0x7703;	????	Illegal as 2-op instr
 218:	2e 2f       	jc	$-418    	;abs 0x76
 21a:	03 42       	.word	0x4203;	????	Illegal as 2-op instr
 21c:	2e 00       	.word	0x002e;	????	
 21e:	02 04       	.word	0x0402;	????	
 220:	01 03       	.word	0x0301;	????	
 222:	c7 00       	.word	0x00c7;	????	
 224:	4a 03       	.word	0x034a;	????	
 226:	b9 7f d6 03 	subc	@r15+,	982(r9)	;0x03d6(r9)
 22a:	c9 00       	.word	0x00c9;	????	
 22c:	82 67 00 02 	addc	r7,	&0x0200	
 230:	04 01       	.word	0x0104;	????	
 232:	06 2e       	jc	$-1010   	;abs 0xfe40
 234:	06 03       	.word	0x0306;	????	
 236:	b6 7f 08 20 	subc	@r15+,	8200(r6);0x2008(r6)
 23a:	03 cb       	.word	0xcb03;	????	Illegal as 2-op instr
 23c:	00 9e       	cmp	r14,	r0	
 23e:	2f 00       	.word	0x002f;	????	
 240:	02 04       	.word	0x0402;	????	
 242:	01 06       	.word	0x0601;	????	
 244:	2e 06       	.word	0x062e;	????	
 246:	6e 02       	.word	0x026e;	????	
 248:	0c 00       	.word	0x000c;	????	
 24a:	01 01       	.word	0x0101;	????	
 24c:	58 00       	.word	0x0058;	????	
 24e:	00 00       	.word	0x0000;	????	
 250:	02 00       	.word	0x0002;	????	
 252:	42 00       	.word	0x0042;	????	
 254:	00 00       	.word	0x0000;	????	
 256:	01 01       	.word	0x0101;	????	
 258:	fb 0e       	.word	0x0efb;	????	
 25a:	0d 00       	.word	0x000d;	????	
 25c:	01 01       	.word	0x0101;	????	
 25e:	01 01       	.word	0x0101;	????	
 260:	00 00       	.word	0x0000;	????	
 262:	00 01       	.word	0x0100;	????	
 264:	00 00       	.word	0x0000;	????	
 266:	01 2e       	jc	$-1020   	;abs 0xfe6a
 268:	2e 2f       	jc	$-418    	;abs 0xc6
 26a:	2e 2e       	jc	$-930    	;abs 0xfec8
 26c:	2f 2e       	jc	$-928    	;abs 0xfecc
 26e:	2e 2f       	jc	$-418    	;abs 0xcc
 270:	67 63       	addc.b	#2,	r7	;r3 As==10
 272:	63 2d       	jc	$+712    	;abs 0x53a
 274:	34 2e       	jc	$-918    	;abs 0xfede
 276:	36 2e       	jc	$-914    	;abs 0xfee4
 278:	33 2f       	jc	$-408    	;abs 0xe0
 27a:	67 63       	addc.b	#2,	r7	;r3 As==10
 27c:	63 2f       	jc	$-312    	;abs 0x144
 27e:	63 6f       	.word	0x6f63;	????	Illegal as 2-op instr
 280:	6e 66       	addc.b	@r6,	r14	
 282:	69 67       	addc.b	@r7,	r9	
 284:	2f 6d       	addc	@r13,	r15	
 286:	73 70       	.word	0x7073;	????	Illegal as 2-op instr
 288:	34 33       	jn	$-406    	;abs 0xf2
 28a:	30 00       	.word	0x0030;	????	
 28c:	00 63       	adc	r0		
 28e:	72 74       	subc.b	@r4+,	r2	
 290:	30 2e       	jc	$-926    	;abs 0xfef2
 292:	53 00       	.word	0x0053;	????	
 294:	01 00       	.word	0x0001;	????	
 296:	00 00       	.word	0x0000;	????	
 298:	00 03       	.word	0x0300;	????	
 29a:	02 00       	.word	0x0002;	????	
 29c:	c0 03       	.word	0x03c0;	????	
 29e:	e8 00       	.word	0x00e8;	????	
 2a0:	01 4b       	mov	r11,	r1	
 2a2:	4b 02       	.word	0x024b;	????	
 2a4:	04 00       	.word	0x0004;	????	
 2a6:	01 01       	.word	0x0101;	????	
 2a8:	56 00       	.word	0x0056;	????	
 2aa:	00 00       	.word	0x0000;	????	
 2ac:	02 00       	.word	0x0002;	????	
 2ae:	42 00       	.word	0x0042;	????	
 2b0:	00 00       	.word	0x0000;	????	
 2b2:	01 01       	.word	0x0101;	????	
 2b4:	fb 0e       	.word	0x0efb;	????	
 2b6:	0d 00       	.word	0x000d;	????	
 2b8:	01 01       	.word	0x0101;	????	
 2ba:	01 01       	.word	0x0101;	????	
 2bc:	00 00       	.word	0x0000;	????	
 2be:	00 01       	.word	0x0100;	????	
 2c0:	00 00       	.word	0x0000;	????	
 2c2:	01 2e       	jc	$-1020   	;abs 0xfec6
 2c4:	2e 2f       	jc	$-418    	;abs 0x122
 2c6:	2e 2e       	jc	$-930    	;abs 0xff24
 2c8:	2f 2e       	jc	$-928    	;abs 0xff28
 2ca:	2e 2f       	jc	$-418    	;abs 0x128
 2cc:	67 63       	addc.b	#2,	r7	;r3 As==10
 2ce:	63 2d       	jc	$+712    	;abs 0x596
 2d0:	34 2e       	jc	$-918    	;abs 0xff3a
 2d2:	36 2e       	jc	$-914    	;abs 0xff40
 2d4:	33 2f       	jc	$-408    	;abs 0x13c
 2d6:	67 63       	addc.b	#2,	r7	;r3 As==10
 2d8:	63 2f       	jc	$-312    	;abs 0x1a0
 2da:	63 6f       	.word	0x6f63;	????	Illegal as 2-op instr
 2dc:	6e 66       	addc.b	@r6,	r14	
 2de:	69 67       	addc.b	@r7,	r9	
 2e0:	2f 6d       	addc	@r13,	r15	
 2e2:	73 70       	.word	0x7073;	????	Illegal as 2-op instr
 2e4:	34 33       	jn	$-406    	;abs 0x14e
 2e6:	30 00       	.word	0x0030;	????	
 2e8:	00 63       	adc	r0		
 2ea:	72 74       	subc.b	@r4+,	r2	
 2ec:	30 2e       	jc	$-926    	;abs 0xff4e
 2ee:	53 00       	.word	0x0053;	????	
 2f0:	01 00       	.word	0x0001;	????	
 2f2:	00 00       	.word	0x0000;	????	
 2f4:	00 03       	.word	0x0300;	????	
 2f6:	02 0c       	.word	0x0c02;	????	
 2f8:	c0 03       	.word	0x03c0;	????	
 2fa:	99 01       	.word	0x0199;	????	
 2fc:	01 02       	.word	0x0201;	????	
 2fe:	04 00       	.word	0x0004;	????	
 300:	01 01       	.word	0x0101;	????	
 302:	5c 00       	.word	0x005c;	????	
 304:	00 00       	.word	0x0000;	????	
 306:	02 00       	.word	0x0002;	????	
 308:	42 00       	.word	0x0042;	????	
 30a:	00 00       	.word	0x0000;	????	
 30c:	01 01       	.word	0x0101;	????	
 30e:	fb 0e       	.word	0x0efb;	????	
 310:	0d 00       	.word	0x000d;	????	
 312:	01 01       	.word	0x0101;	????	
 314:	01 01       	.word	0x0101;	????	
 316:	00 00       	.word	0x0000;	????	
 318:	00 01       	.word	0x0100;	????	
 31a:	00 00       	.word	0x0000;	????	
 31c:	01 2e       	jc	$-1020   	;abs 0xff20
 31e:	2e 2f       	jc	$-418    	;abs 0x17c
 320:	2e 2e       	jc	$-930    	;abs 0xff7e
 322:	2f 2e       	jc	$-928    	;abs 0xff82
 324:	2e 2f       	jc	$-418    	;abs 0x182
 326:	67 63       	addc.b	#2,	r7	;r3 As==10
 328:	63 2d       	jc	$+712    	;abs 0x5f0
 32a:	34 2e       	jc	$-918    	;abs 0xff94
 32c:	36 2e       	jc	$-914    	;abs 0xff9a
 32e:	33 2f       	jc	$-408    	;abs 0x196
 330:	67 63       	addc.b	#2,	r7	;r3 As==10
 332:	63 2f       	jc	$-312    	;abs 0x1fa
 334:	63 6f       	.word	0x6f63;	????	Illegal as 2-op instr
 336:	6e 66       	addc.b	@r6,	r14	
 338:	69 67       	addc.b	@r7,	r9	
 33a:	2f 6d       	addc	@r13,	r15	
 33c:	73 70       	.word	0x7073;	????	Illegal as 2-op instr
 33e:	34 33       	jn	$-406    	;abs 0x1a8
 340:	30 00       	.word	0x0030;	????	
 342:	00 63       	adc	r0		
 344:	72 74       	subc.b	@r4+,	r2	
 346:	30 2e       	jc	$-926    	;abs 0xffa8
 348:	53 00       	.word	0x0053;	????	
 34a:	01 00       	.word	0x0001;	????	
 34c:	00 00       	.word	0x0000;	????	
 34e:	00 03       	.word	0x0300;	????	
 350:	02 10       	rrc	r2		
 352:	c0 03       	.word	0x03c0;	????	
 354:	bc 01       	.word	0x01bc;	????	
 356:	01 4b       	mov	r11,	r1	
 358:	2f 30       	jn	$+96     	;abs 0x3b8
 35a:	67 2f       	jc	$-304    	;abs 0x22a
 35c:	67 02       	.word	0x0267;	????	
 35e:	02 00       	.word	0x0002;	????	
 360:	01 01       	.word	0x0101;	????	
 362:	5c 00       	.word	0x005c;	????	
 364:	00 00       	.word	0x0000;	????	
 366:	02 00       	.word	0x0002;	????	
 368:	42 00       	.word	0x0042;	????	
 36a:	00 00       	.word	0x0000;	????	
 36c:	01 01       	.word	0x0101;	????	
 36e:	fb 0e       	.word	0x0efb;	????	
 370:	0d 00       	.word	0x000d;	????	
 372:	01 01       	.word	0x0101;	????	
 374:	01 01       	.word	0x0101;	????	
 376:	00 00       	.word	0x0000;	????	
 378:	00 01       	.word	0x0100;	????	
 37a:	00 00       	.word	0x0000;	????	
 37c:	01 2e       	jc	$-1020   	;abs 0xff80
 37e:	2e 2f       	jc	$-418    	;abs 0x1dc
 380:	2e 2e       	jc	$-930    	;abs 0xffde
 382:	2f 2e       	jc	$-928    	;abs 0xffe2
 384:	2e 2f       	jc	$-418    	;abs 0x1e2
 386:	67 63       	addc.b	#2,	r7	;r3 As==10
 388:	63 2d       	jc	$+712    	;abs 0x650
 38a:	34 2e       	jc	$-918    	;abs 0xfff4
 38c:	36 2e       	jc	$-914    	;abs 0xfffa
 38e:	33 2f       	jc	$-408    	;abs 0x1f6
 390:	67 63       	addc.b	#2,	r7	;r3 As==10
 392:	63 2f       	jc	$-312    	;abs 0x25a
 394:	63 6f       	.word	0x6f63;	????	Illegal as 2-op instr
 396:	6e 66       	addc.b	@r6,	r14	
 398:	69 67       	addc.b	@r7,	r9	
 39a:	2f 6d       	addc	@r13,	r15	
 39c:	73 70       	.word	0x7073;	????	Illegal as 2-op instr
 39e:	34 33       	jn	$-406    	;abs 0x208
 3a0:	30 00       	.word	0x0030;	????	
 3a2:	00 63       	adc	r0		
 3a4:	72 74       	subc.b	@r4+,	r2	
 3a6:	30 2e       	jc	$-926    	;abs 0x8
 3a8:	53 00       	.word	0x0053;	????	
 3aa:	01 00       	.word	0x0001;	????	
 3ac:	00 00       	.word	0x0000;	????	
 3ae:	00 03       	.word	0x0300;	????	
 3b0:	02 28       	jnc	$+6      	;abs 0x3b6
 3b2:	c0 03       	.word	0x03c0;	????	
 3b4:	d6 01       	.word	0x01d6;	????	
 3b6:	01 4b       	mov	r11,	r1	
 3b8:	2f 30       	jn	$+96     	;abs 0x418
 3ba:	67 2f       	jc	$-304    	;abs 0x28a
 3bc:	4b 02       	.word	0x024b;	????	
 3be:	02 00       	.word	0x0002;	????	
 3c0:	01 01       	.word	0x0101;	????	
 3c2:	57 00       	.word	0x0057;	????	
 3c4:	00 00       	.word	0x0000;	????	
 3c6:	02 00       	.word	0x0002;	????	
 3c8:	42 00       	.word	0x0042;	????	
 3ca:	00 00       	.word	0x0000;	????	
 3cc:	01 01       	.word	0x0101;	????	
 3ce:	fb 0e       	.word	0x0efb;	????	
 3d0:	0d 00       	.word	0x000d;	????	
 3d2:	01 01       	.word	0x0101;	????	
 3d4:	01 01       	.word	0x0101;	????	
 3d6:	00 00       	.word	0x0000;	????	
 3d8:	00 01       	.word	0x0100;	????	
 3da:	00 00       	.word	0x0000;	????	
 3dc:	01 2e       	jc	$-1020   	;abs 0xffe0
 3de:	2e 2f       	jc	$-418    	;abs 0x23c
 3e0:	2e 2e       	jc	$-930    	;abs 0x3e
 3e2:	2f 2e       	jc	$-928    	;abs 0x42
 3e4:	2e 2f       	jc	$-418    	;abs 0x242
 3e6:	67 63       	addc.b	#2,	r7	;r3 As==10
 3e8:	63 2d       	jc	$+712    	;abs 0x6b0
 3ea:	34 2e       	jc	$-918    	;abs 0x54
 3ec:	36 2e       	jc	$-914    	;abs 0x5a
 3ee:	33 2f       	jc	$-408    	;abs 0x256
 3f0:	67 63       	addc.b	#2,	r7	;r3 As==10
 3f2:	63 2f       	jc	$-312    	;abs 0x2ba
 3f4:	63 6f       	.word	0x6f63;	????	Illegal as 2-op instr
 3f6:	6e 66       	addc.b	@r6,	r14	
 3f8:	69 67       	addc.b	@r7,	r9	
 3fa:	2f 6d       	addc	@r13,	r15	
 3fc:	73 70       	.word	0x7073;	????	Illegal as 2-op instr
 3fe:	34 33       	jn	$-406    	;abs 0x268
 400:	30 00       	.word	0x0030;	????	
 402:	00 63       	adc	r0		
 404:	72 74       	subc.b	@r4+,	r2	
 406:	30 2e       	jc	$-926    	;abs 0x68
 408:	53 00       	.word	0x0053;	????	
 40a:	01 00       	.word	0x0001;	????	
 40c:	00 00       	.word	0x0000;	????	
 40e:	00 03       	.word	0x0300;	????	
 410:	02 f8       	and	r8,	r2	
 412:	ca 03       	.word	0x03ca;	????	
 414:	fe 01       	.word	0x01fe;	????	
 416:	01 4b       	mov	r11,	r1	
 418:	02 02       	.word	0x0202;	????	
 41a:	00 01       	.word	0x0100;	????	
 41c:	01 56       	add	r6,	r1	
 41e:	00 00       	.word	0x0000;	????	
 420:	00 02       	.word	0x0200;	????	
 422:	00 42       	br	r2		
 424:	00 00       	.word	0x0000;	????	
 426:	00 01       	.word	0x0100;	????	
 428:	01 fb       	and	r11,	r1	
 42a:	0e 0d       	.word	0x0d0e;	????	
 42c:	00 01       	.word	0x0100;	????	
 42e:	01 01       	.word	0x0101;	????	
 430:	01 00       	.word	0x0001;	????	
 432:	00 00       	.word	0x0000;	????	
 434:	01 00       	.word	0x0001;	????	
 436:	00 01       	.word	0x0100;	????	
 438:	2e 2e       	jc	$-930    	;abs 0x96
 43a:	2f 2e       	jc	$-928    	;abs 0x9a
 43c:	2e 2f       	jc	$-418    	;abs 0x29a
 43e:	2e 2e       	jc	$-930    	;abs 0x9c
 440:	2f 67       	addc	@r7,	r15	
 442:	63 63       	.word	0x6363;	????	Illegal as 2-op instr
 444:	2d 34       	jge	$+92     	;abs 0x4a0
 446:	2e 36       	jge	$-930    	;abs 0xa4
 448:	2e 33       	jn	$-418    	;abs 0x2a6
 44a:	2f 67       	addc	@r7,	r15	
 44c:	63 63       	.word	0x6363;	????	Illegal as 2-op instr
 44e:	2f 63       	addc	#2,	r15	;r3 As==10
 450:	6f 6e       	addc.b	@r14,	r15	
 452:	66 69       	addc.b	@r9,	r6	
 454:	67 2f       	jc	$-304    	;abs 0x324
 456:	6d 73       	subc.b	#2,	r13	;r3 As==10
 458:	70 34       	jge	$+226    	;abs 0x53a
 45a:	33 30       	jn	$+104    	;abs 0x4c2
 45c:	00 00       	.word	0x0000;	????	
 45e:	63 72       	.word	0x7263;	????	Illegal as 2-op instr
 460:	74 30       	jn	$+234    	;abs 0x54a
 462:	2e 53       	incd	r14		
 464:	00 01       	.word	0x0100;	????	
 466:	00 00       	.word	0x0000;	????	
 468:	00 00       	.word	0x0000;	????	
 46a:	03 02       	.word	0x0203;	????	
 46c:	3a da       	bis	@r10+,	r10	
 46e:	03 cd       	.word	0xcd03;	????	Illegal as 2-op instr
 470:	02 01       	.word	0x0102;	????	
 472:	02 02       	.word	0x0202;	????	
 474:	00 01       	.word	0x0100;	????	
 476:	01 63       	Address 0x00000476 is out of bounds.
Address 0x00000478 is out of bounds.
and.b	@r15+,	-1(r15)	;0xffff(r15)

Disassembly of section .debug_frame:

00000000 <.debug_frame>:
   0:	0e 00       	.word	0x000e;	????	
   2:	00 00       	.word	0x0000;	????	
   4:	ff ff ff ff 	and.b	@r15+,	-1(r15)	;0xffff(r15)
   8:	01 00       	.word	0x0001;	????	
   a:	01 7e       	subc	r14,	r1	
   c:	00 0c       	.word	0x0c00;	????	
   e:	01 02       	.word	0x0201;	????	
  10:	80 01       	.word	0x0180;	????	
  12:	22 00       	.word	0x0022;	????	
  14:	00 00       	.word	0x0000;	????	
  16:	00 00       	.word	0x0000;	????	
  18:	00 00       	.word	0x0000;	????	
  1a:	40 d9       	bis.b	r9,	r0	
  1c:	fa 00       	.word	0x00fa;	????	
  1e:	42 0e       	.word	0x0e42;	????	
  20:	04 8b       	sub	r11,	r4	
  22:	02 42       	mov	r2,	r2	
  24:	0e 06       	.word	0x060e;	????	
  26:	8a 03       	.word	0x038a;	????	
  28:	42 0e       	.word	0x0e42;	????	
  2a:	08 89       	sub	r9,	r8	
  2c:	04 42       	mov	r2,	r4	
  2e:	0e 0a       	.word	0x0a0e;	????	
  30:	88 05       	.word	0x0588;	????	
  32:	42 0e       	.word	0x0e42;	????	
  34:	0c 87       	sub	r7,	r12	
  36:	06 00       	.word	0x0006;	????	

Disassembly of section .debug_str:

00000000 <.debug_str>:
   0:	77 6f       	addc.b	@r15+,	r7	
   2:	72 64       	addc.b	@r4+,	r2	
   4:	00 73       	sbc	r0		
   6:	69 7a       	subc.b	@r10,	r9	
   8:	65 5f       	add.b	@r15,	r5	
   a:	74 00       	.word	0x0074;	????	
   c:	2e 2f       	jc	$-418    	;abs 0xfe6a
   e:	73 74       	.word	0x7473;	????	Illegal as 2-op instr
  10:	72 69       	addc.b	@r9+,	r2	
  12:	6e 67       	addc.b	@r7,	r14	
  14:	2f 6d       	addc	@r13,	r15	
  16:	65 6d       	addc.b	@r13,	r5	
  18:	63 70       	.word	0x7063;	????	Illegal as 2-op instr
  1a:	79 2e       	jc	$-780    	;abs 0xfd0e
  1c:	63 00       	.word	0x0063;	????	
  1e:	64 73       	subc.b	#2,	r4	;r3 As==10
  20:	74 30       	jn	$+234    	;abs 0x10a
  22:	00 47       	br	r7		
  24:	4e 55       	add.b	r5,	r14	
  26:	20 43       	br	#2		;r3 As==10
  28:	20 34       	jge	$+66     	;abs 0x6a
  2a:	2e 36       	jge	$-930    	;abs 0xfc88
  2c:	2e 33       	jn	$-418    	;abs 0xfe8a
  2e:	20 32       	jn	$-958    	;abs 0xfc70
  30:	30 31       	jn	$+610    	;abs 0x292
  32:	32 30       	jn	$+102    	;abs 0x98
  34:	33 30       	jn	$+104    	;abs 0x9c
  36:	31 20       	jnz	$+100    	;abs 0x9a
  38:	28 6d       	addc	@r13,	r8	
  3a:	73 70       	.word	0x7073;	????	Illegal as 2-op instr
  3c:	67 63       	addc.b	#2,	r7	;r3 As==10
  3e:	63 20       	jnz	$+200    	;abs 0x106
  40:	4c 54       	add.b	r4,	r12	
  42:	53 20       	jnz	$+168    	;abs 0xea
  44:	32 30       	jn	$+102    	;abs 0xaa
  46:	31 32       	jn	$-924    	;abs 0xfcaa
  48:	30 34       	jge	$+98     	;abs 0xaa
  4a:	30 36       	jge	$-926    	;abs 0xfcac
  4c:	20 70       	subc	@r0,	r0	
  4e:	61 74       	subc.b	@r4,	r1	
  50:	63 68       	.word	0x6863;	????	Illegal as 2-op instr
  52:	65 64       	addc.b	@r4,	r5	
  54:	20 74       	subc	@r4,	r0	
  56:	6f 20       	jnz	$+224    	;abs 0x136
  58:	32 30       	jn	$+102    	;abs 0xbe
  5a:	31 32       	jn	$-924    	;abs 0xfcbe
  5c:	30 35       	jge	$+610    	;abs 0x2be
  5e:	30 32       	jn	$-926    	;abs 0xfcc0
  60:	29 00       	.word	0x0029;	????	
  62:	75 6e       	addc.b	@r14+,	r5	
  64:	73 69       	.word	0x6973;	????	Illegal as 2-op instr
  66:	67 6e       	addc.b	@r14,	r7	
  68:	65 64       	addc.b	@r4,	r5	
  6a:	20 63       	addc	#2,	r0	;r3 As==10
  6c:	68 61       	addc.b	@r1,	r8	
  6e:	72 00       	.word	0x0072;	????	
  70:	73 68       	.word	0x6873;	????	Illegal as 2-op instr
  72:	6f 72       	subc.b	#4,	r15	;r2 As==10
  74:	74 20       	jnz	$+234    	;abs 0x15e
  76:	75 6e       	addc.b	@r14+,	r5	
  78:	73 69       	.word	0x6973;	????	Illegal as 2-op instr
  7a:	67 6e       	addc.b	@r14,	r7	
  7c:	65 64       	addc.b	@r4,	r5	
  7e:	20 69       	addc	@r9,	r0	
  80:	6e 74       	subc.b	@r4,	r14	
  82:	00 6c       	addc	r12,	r0	
  84:	6f 6e       	addc.b	@r14,	r15	
  86:	67 20       	jnz	$+208    	;abs 0x156
  88:	6c 6f       	addc.b	@r15,	r12	
  8a:	6e 67       	addc.b	@r7,	r14	
  8c:	20 75       	subc	@r5,	r0	
  8e:	6e 73       	subc.b	#2,	r14	;r3 As==10
  90:	69 67       	addc.b	@r7,	r9	
  92:	6e 65       	addc.b	@r5,	r14	
  94:	64 20       	jnz	$+202    	;abs 0x15e
  96:	69 6e       	addc.b	@r14,	r9	
  98:	74 00       	.word	0x0074;	????	
  9a:	6c 6f       	addc.b	@r15,	r12	
  9c:	6e 67       	addc.b	@r7,	r14	
  9e:	20 6c       	addc	@r12,	r0	
  a0:	6f 6e       	addc.b	@r14,	r15	
  a2:	67 20       	jnz	$+208    	;abs 0x172
  a4:	69 6e       	addc.b	@r14,	r9	
  a6:	74 00       	.word	0x0074;	????	
  a8:	2f 72       	subc	#4,	r15	;r2 As==10
  aa:	6f 6f       	addc.b	@r15,	r15	
  ac:	74 2f       	jc	$-278    	;abs 0xff96
  ae:	6d 73       	subc.b	#2,	r13	;r3 As==10
  b0:	70 67       	addc.b	@r7+,	r0	
  b2:	63 63       	.word	0x6363;	????	Illegal as 2-op instr
  b4:	2d 32       	jn	$-932    	;abs 0xfd10
  b6:	30 31       	jn	$+610    	;abs 0x318
  b8:	32 30       	jn	$+102    	;abs 0x11e
  ba:	34 30       	jn	$+106    	;abs 0x124
  bc:	36 2f       	jc	$-402    	;abs 0xff2a
  be:	6d 73       	subc.b	#2,	r13	;r3 As==10
  c0:	70 34       	jge	$+226    	;abs 0x1a2
  c2:	33 30       	jn	$+104    	;abs 0x12a
  c4:	2d 6c       	addc	@r12,	r13	
  c6:	69 62       	addc.b	#4,	r9	;r2 As==10
  c8:	63 2f       	jc	$-312    	;abs 0xff90
  ca:	73 72       	.word	0x7273;	????	Illegal as 2-op instr
  cc:	63 00       	.word	0x0063;	????	
  ce:	6d 65       	addc.b	@r5,	r13	
  d0:	6d 63       	addc.b	#2,	r13	;r3 As==10
  d2:	70 79       	subc.b	@r9+,	r0	
  d4:	00 6c       	addc	r12,	r0	
  d6:	65 6e       	addc.b	@r14,	r5	
  d8:	67 74       	subc.b	@r4,	r7	
  da:	68 00       	.word	0x0068;	????	
  dc:	73 72       	.word	0x7273;	????	Illegal as 2-op instr
  de:	63 30       	jn	$+200    	;abs 0x1a6
  e0:	00 64       	addc	r4,	r0	
  e2:	6f 6e       	addc.b	@r14,	r15	
  e4:	65 00       	.word	0x0065;	????	

Disassembly of section .debug_loc:

00000000 <.debug_loc>:
   0:	00 00       	.word	0x0000;	????	
   2:	02 00       	.word	0x0002;	????	
   4:	02 00       	.word	0x0002;	????	
   6:	71 02       	.word	0x0271;	????	
   8:	02 00       	.word	0x0002;	????	
   a:	04 00       	.word	0x0004;	????	
   c:	02 00       	.word	0x0002;	????	
   e:	71 04       	.word	0x0471;	????	
  10:	04 00       	.word	0x0004;	????	
  12:	06 00       	.word	0x0006;	????	
  14:	02 00       	.word	0x0002;	????	
  16:	71 06       	.word	0x0671;	????	
  18:	06 00       	.word	0x0006;	????	
  1a:	08 00       	.word	0x0008;	????	
  1c:	02 00       	.word	0x0002;	????	
  1e:	71 08       	.word	0x0871;	????	
  20:	08 00       	.word	0x0008;	????	
  22:	0a 00       	.word	0x000a;	????	
  24:	02 00       	.word	0x0002;	????	
  26:	71 0a       	.word	0x0a71;	????	
  28:	0a 00       	.word	0x000a;	????	
  2a:	fa 00       	.word	0x00fa;	????	
  2c:	02 00       	.word	0x0002;	????	
  2e:	71 0c       	.word	0x0c71;	????	
  30:	00 00       	.word	0x0000;	????	
  32:	00 00       	.word	0x0000;	????	
  34:	00 00       	.word	0x0000;	????	
  36:	0e 00       	.word	0x000e;	????	
  38:	01 00       	.word	0x0001;	????	
  3a:	5f 38       	jl	$+192    	;abs 0xfa
  3c:	00 fa       	and	r10,	r0	
  3e:	00 01       	.word	0x0100;	????	
  40:	00 5f       	add	r15,	r0	
  42:	00 00       	.word	0x0000;	????	
  44:	00 00       	.word	0x0000;	????	
  46:	00 00       	.word	0x0000;	????	
  48:	50 00       	.word	0x0050;	????	
  4a:	01 00       	.word	0x0001;	????	
  4c:	5e 52 00 54 	add.b	&0x5400,r14	
  50:	00 01       	.word	0x0100;	????	
  52:	00 5e       	add	r14,	r0	
  54:	7c 00       	.word	0x007c;	????	
  56:	7e 00       	.word	0x007e;	????	
  58:	01 00       	.word	0x0001;	????	
  5a:	5e 00       	.word	0x005e;	????	
  5c:	00 00       	.word	0x0000;	????	
  5e:	00 00       	.word	0x0000;	????	
  60:	00 74       	subc	r4,	r0	
  62:	00 01       	.word	0x0100;	????	
  64:	00 5d       	add	r13,	r0	
  66:	7c 00       	.word	0x007c;	????	
  68:	e6 00       	.word	0x00e6;	????	
  6a:	01 00       	.word	0x0001;	????	
  6c:	5d 00       	.word	0x005d;	????	
  6e:	00 00       	.word	0x0000;	????	
  70:	00 0a       	.word	0x0a00;	????	
  72:	00 40       	br	r0		
  74:	00 01       	.word	0x0100;	????	
  76:	00 5f       	add	r15,	r0	
  78:	40 00       	.word	0x0040;	????	
  7a:	52 00       	.word	0x0052;	????	
  7c:	01 00       	.word	0x0001;	????	
  7e:	5b 52 00 54 	add.b	&0x5400,r11	
  82:	00 01       	.word	0x0100;	????	
  84:	00 5f       	add	r15,	r0	
  86:	54 00       	.word	0x0054;	????	
  88:	62 00       	.word	0x0062;	????	
  8a:	01 00       	.word	0x0001;	????	
  8c:	5a 62 00 72 	addc.b	&0x7200,r10	
  90:	00 01       	.word	0x0100;	????	
  92:	00 5c       	add	r12,	r0	
  94:	72 00       	.word	0x0072;	????	
  96:	7a 00       	.word	0x007a;	????	
  98:	01 00       	.word	0x0001;	????	
  9a:	5a 7a 00 7c 	subc.b	31744(r10),r10	;0x7c00(r10)
  9e:	00 03       	.word	0x0300;	????	
  a0:	00 7a       	subc	r10,	r0	
  a2:	01 9f       	cmp	r15,	r1	
  a4:	7c 00       	.word	0x007c;	????	
  a6:	82 00       	.word	0x0082;	????	
  a8:	01 00       	.word	0x0001;	????	
  aa:	5f 82 00 aa 	sub.b	&0xaa00,r15	
  ae:	00 01       	.word	0x0100;	????	
  b0:	00 5c       	add	r12,	r0	
  b2:	aa 00       	.word	0x00aa;	????	
  b4:	c0 00       	.word	0x00c0;	????	
  b6:	01 00       	.word	0x0001;	????	
  b8:	5a c0 00 ce 	bic.b	-12800(r0),r10	;PC rel. 0xceba
  bc:	00 01       	.word	0x0100;	????	
  be:	00 5c       	add	r12,	r0	
  c0:	ce 00       	.word	0x00ce;	????	
  c2:	e4 00       	.word	0x00e4;	????	
  c4:	01 00       	.word	0x0001;	????	
  c6:	59 e4 00 e8 	xor.b	-6144(r4),r9	;0xe800(r4)
  ca:	00 01       	.word	0x0100;	????	
  cc:	00 5c       	add	r12,	r0	
  ce:	e8 00       	.word	0x00e8;	????	
  d0:	ee 00       	.word	0x00ee;	????	
  d2:	03 00       	.word	0x0003;	????	
  d4:	7c 7f       	subc.b	@r15+,	r12	
  d6:	9f 00       	.word	0x009f;	????	
  d8:	00 00       	.word	0x0000;	????	
  da:	00 0a       	.word	0x0a00;	????	
  dc:	00 40       	br	r0		
  de:	00 01       	.word	0x0100;	????	
  e0:	00 5e       	add	r14,	r0	
  e2:	40 00       	.word	0x0040;	????	
  e4:	44 00       	.word	0x0044;	????	
  e6:	01 00       	.word	0x0001;	????	
  e8:	59 44 00 46 	mov.b	17920(r4),r9	;0x4600(r4)
  ec:	00 03       	.word	0x0300;	????	
  ee:	00 79       	subc	r9,	r0	
  f0:	7f 9f       	cmp.b	@r15+,	r15	
  f2:	46 00       	.word	0x0046;	????	
  f4:	52 00       	.word	0x0052;	????	
  f6:	01 00       	.word	0x0001;	????	
  f8:	59 52 00 62 	add.b	&0x6200,r9	
  fc:	00 01       	.word	0x0100;	????	
  fe:	00 5e       	add	r14,	r0	
 100:	62 00       	.word	0x0062;	????	
 102:	72 00       	.word	0x0072;	????	
 104:	01 00       	.word	0x0001;	????	
 106:	58 72 00 7a 	subc.b	&0x7a00,r8	
 10a:	00 01       	.word	0x0100;	????	
 10c:	00 5e       	add	r14,	r0	
 10e:	7a 00       	.word	0x007a;	????	
 110:	7c 00       	.word	0x007c;	????	
 112:	03 00       	.word	0x0003;	????	
 114:	7e 01       	.word	0x017e;	????	
 116:	9f 7c 00 aa 	subc	-22016(r12),256(r15);0xaa00(r12), 0x0100(r15)
 11a:	00 01 
 11c:	00 5e       	add	r14,	r0	
 11e:	aa 00       	.word	0x00aa;	????	
 120:	c0 00       	.word	0x00c0;	????	
 122:	01 00       	.word	0x0001;	????	
 124:	59 c0 00 ce 	bic.b	-12800(r0),r9	;PC rel. 0xcf26
 128:	00 01       	.word	0x0100;	????	
 12a:	00 5e       	add	r14,	r0	
 12c:	ce 00       	.word	0x00ce;	????	
 12e:	e4 00       	.word	0x00e4;	????	
 130:	01 00       	.word	0x0001;	????	
 132:	58 e4 00 e8 	xor.b	-6144(r4),r8	;0xe800(r4)
 136:	00 01       	.word	0x0100;	????	
 138:	00 5e       	add	r14,	r0	
 13a:	e8 00       	.word	0x00e8;	????	
 13c:	ee 00       	.word	0x00ee;	????	
 13e:	03 00       	.word	0x0003;	????	
 140:	7e 7f       	subc.b	@r15+,	r14	
 142:	9f 00       	.word	0x009f;	????	
 144:	00 00       	.word	0x0000;	????	
 146:	00 14       	.word	0x1400;	????	
 148:	00 30       	jn	$+2      	;abs 0x14a
 14a:	00 01       	.word	0x0100;	????	
 14c:	00 5e       	add	r14,	r0	
 14e:	30 00       	.word	0x0030;	????	
 150:	32 00       	.word	0x0032;	????	
 152:	01 00       	.word	0x0001;	????	
 154:	5c 32       	jn	$-838    	;abs 0xfe0e
 156:	00 38       	jl	$+2      	;abs 0x158
 158:	00 01       	.word	0x0100;	????	
 15a:	00 5e       	add	r14,	r0	
 15c:	38 00       	.word	0x0038;	????	
 15e:	40 00       	.word	0x0040;	????	
 160:	01 00       	.word	0x0001;	????	
 162:	5c 40 00 4c 	mov.b	19456(r0),r12	;PC rel. 0x4d64
 166:	00 01       	.word	0x0100;	????	
 168:	00 5a       	add	r10,	r0	
 16a:	52 00       	.word	0x0052;	????	
 16c:	54 00       	.word	0x0054;	????	
 16e:	01 00       	.word	0x0001;	????	
 170:	5e 5a 00 62 	add.b	25088(r10),r14	;0x6200(r10)
 174:	00 01       	.word	0x0100;	????	
 176:	00 5b       	add	r11,	r0	
 178:	62 00       	.word	0x0062;	????	
 17a:	72 00       	.word	0x0072;	????	
 17c:	01 00       	.word	0x0001;	????	
 17e:	59 72 00 74 	subc.b	&0x7400,r9	
 182:	00 05       	.word	0x0500;	????	
 184:	00 7d       	subc	r13,	r0	
 186:	00 31       	jn	$+514    	;abs 0x388
 188:	1a 9f 74 00 	cmp	116(r15),r10	;0x0074(r15)
 18c:	76 00       	.word	0x0076;	????	
 18e:	01 00       	.word	0x0001;	????	
 190:	5d 76 00 7a 	subc.b	31232(r6),r13	;0x7a00(r6)
 194:	00 02       	.word	0x0200;	????	
 196:	00 31       	jn	$+514    	;abs 0x398
 198:	9f 7a 00 7c 	subc	31744(r10),512(r15);0x7c00(r10), 0x0200(r15)
 19c:	00 02 
 19e:	00 30       	jn	$+2      	;abs 0x1a0
 1a0:	9f 82 00 9c 	sub	&0x9c00,256(r15);0x0100(r15)
 1a4:	00 01 
 1a6:	00 5e       	add	r14,	r0	
 1a8:	9c 00       	.word	0x009c;	????	
 1aa:	9e 00       	.word	0x009e;	????	
 1ac:	01 00       	.word	0x0001;	????	
 1ae:	5b 9e 00 a0 	cmp.b	-24576(r14),r11	;0xa000(r14)
 1b2:	00 01       	.word	0x0100;	????	
 1b4:	00 5e       	add	r14,	r0	
 1b6:	a0 00       	.word	0x00a0;	????	
 1b8:	aa 00       	.word	0x00aa;	????	
 1ba:	01 00       	.word	0x0001;	????	
 1bc:	5b c6 00 ce 	bic.b	-12800(r6),r11	;0xce00(r6)
 1c0:	00 01       	.word	0x0100;	????	
 1c2:	00 5b       	add	r11,	r0	
 1c4:	ce 00       	.word	0x00ce;	????	
 1c6:	dc 00       	.word	0x00dc;	????	
 1c8:	01 00       	.word	0x0001;	????	
 1ca:	5a e4 00 e6 	xor.b	-6656(r4),r10	;0xe600(r4)
 1ce:	00 05       	.word	0x0500;	????	
 1d0:	00 7d       	subc	r13,	r0	
 1d2:	00 31       	jn	$+514    	;abs 0x3d4
 1d4:	1a 9f e6 00 	cmp	230(r15),r10	;0x00e6(r15)
 1d8:	e8 00       	.word	0x00e8;	????	
 1da:	01 00       	.word	0x0001;	????	
 1dc:	5d e8 00 ee 	xor.b	-4608(r8),r13	;0xee00(r8)
 1e0:	00 02       	.word	0x0200;	????	
 1e2:	00 31       	jn	$+514    	;abs 0x3e4
 1e4:	9f 00       	.word	0x009f;	????	
 1e6:	00 00       	.word	0x0000;	????	
	...
